     VMA      LMA     Size Align Out     In      Symbol
       0        0        0     1 RAM_START = 0x1ffe0000
       0        0        0     1 RAM_LENGTH = 0x00060000
       0        0        0     1 FLASH_START = 0x00000440
       0        0        0     1 FLASH_LENGTH = 0x000ffbc0
       0        0        0     1 DATA_FLASH_START = 0x40100000
       0        0        0     1 DATA_FLASH_LENGTH = 0x00008000
       0        0        0     1 QSPI_FLASH_START = 0x60000000
       0        0        0     1 QSPI_FLASH_LENGTH = 0x04000000
       0        0        0     1 SDRAM_START = 0x90000000
       0        0        0     1 SDRAM_LENGTH = 0x08000000
       0        0        0     1 OPTION_SETTING_OFS0_START = 0x00000400
       0        0        0     1 OPTION_SETTING_OFS0_LENGTH = 0x00000004
       0        0        0     1 OPTION_SETTING_OFS1_START = 0x00000404
       0        0        0     1 OPTION_SETTING_OFS1_LENGTH = 0x00000004
       0        0        0     1 OPTION_SETTING_SECMPU_START = 0x00000408
       0        0        0     1 OPTION_SETTING_SECMPU_LENGTH = 0x00000034
       0        0        0     1 OPTION_SETTING_OSIS_START = 0x0100a150
       0        0        0     1 OPTION_SETTING_OSIS_LENGTH = 0x00000010
       0        0        0     1 FLASH_GAP_START = 0x00000000
       0        0        0     1 FLASH_GAP_LENGTH = 0x00000400
60000000 60000000        0     1 .qspi_flash.startof
60000000 60000000        0     1         __ddsc_QSPI_FLASH_START = .
90000000 90000000        0     1 .sdram.startof
90000000 90000000        0     1         __ddsc_SDRAM_START = .
90000000 90000000        0     1 __sdram_from_qspi_flash$$
90000000 90000000        0     1         __sdram_from_qspi_flash$$Base = .
90000000 90000000        0     1         __sdram_from_qspi_flash$$Load = LOADADDR ( __sdram_from_qspi_flash$$ )
90000000 90000000        0     1         __sdram_from_qspi_flash$$Limit = .
1ffe0000 1ffe0000        0     1 .ram.startof
1ffe0000 1ffe0000        0     1         __ddsc_RAM_START = .
1ffe0000 1ffe0000        0     1 __ram_dtc_vector$$
1ffe0000 1ffe0000        0     1         __ram_dtc_vector$$Base = .
1ffe0000 1ffe0000        0     1         __ram_dtc_vector$$Limit = .
1ffe0000 1ffe0000        0     1 __ram_from_qspi_flash$$
1ffe0000 1ffe0000        0     1         __ram_from_qspi_flash$$Base = .
1ffe0000 1ffe0000        0     1         __ram_from_qspi_flash$$Load = LOADADDR ( __ram_from_qspi_flash$$ )
1ffe0000 1ffe0000        0     1         __ram_from_qspi_flash$$Limit = .
60000000 60000000        0     1 __qspi_flash_readonly$$
60000000 60000000        0     1         __qspi_flash_readonly$$Base = .
60000000 60000000        0     1         __qspi_flash_readonly$$Limit = .
60000000 60000000        0     1 __qspi_flash_noinit$$
60000000 60000000        0     1         __qspi_flash_noinit$$Base = .
60000000 60000000        0     1         __qspi_flash_noinit$$Limit = .
60000000 60000000        0     1 .qspi_flash.endof
60000000 60000000        0     1         __ddsc_QSPI_FLASH_END = .
40100000 40100000        0     1 .data_flash.startof
40100000 40100000        0     1         __ddsc_DATA_FLASH_START = .
90000000 90000000        0     1 __sdram_from_data_flash$$
90000000 90000000        0     1         __sdram_from_data_flash$$Base = .
90000000 90000000        0     1         __sdram_from_data_flash$$Load = LOADADDR ( __sdram_from_data_flash$$ )
90000000 90000000        0     1         __sdram_from_data_flash$$Limit = .
1ffe0000 1ffe0000        0     1 __ram_from_data_flash$$
1ffe0000 1ffe0000        0     1         __ram_from_data_flash$$Base = .
1ffe0000 1ffe0000        0     1         __ram_from_data_flash$$Load = LOADADDR ( __ram_from_data_flash$$ )
1ffe0000 1ffe0000        0     1         __ram_from_data_flash$$Limit = .
40100000 40100000        0     1 __data_flash_readonly$$
40100000 40100000        0     1         __data_flash_readonly$$Base = .
40100000 40100000        0     1         __data_flash_readonly$$Limit = .
40100000 40100000        0     1 __data_flash_noinit$$
40100000 40100000        0     1         __data_flash_noinit$$Base = .
40100000 40100000        0     1         __data_flash_noinit$$Limit = .
40100000 40100000        0     1 .data_flash.endof
40100000 40100000        0     1         __ddsc_DATA_FLASH_END = .
       0        0        0     1 .flash.startof
       0        0        0     1         __ddsc_FLASH_START = .
       0        0       44     4 __flash_vectors$$
       0        0        0     1         __flash_vectors$$Base = .
       0        0        0     1         _VECTORS = .
       0        0       40     4         ./ra/fsp/src/bsp/cmsis/Device/RENESAS/Source/startup.o:(.fixed_vectors)
       0        0       40     1                 __Vectors
      40       40        4     4         ./ra_gen/vector_data.o:(.application_vectors)
      40       40        4     1                 g_vector_table
      44       44        0     1         __flash_vectors$$Limit = .
      44       44       a4     4 __flash_readonly_gap$$
      44       44        0     1         __flash_readonly_gap$$Base = .
      44       44       10     4         ./ra/fsp/src/bsp/mcu/ra6m2/bsp_linker.o:(.rodata.g_init_info)
      44       44       10     1                 g_init_info
      54       54       24     4         ./ra/fsp/src/bsp/mcu/ra6m2/bsp_linker.o:(.rodata.zero_list)
      54       54       24     1                 zero_list
      78       78       70     4         ./ra/fsp/src/bsp/mcu/ra6m2/bsp_linker.o:(.rodata.copy_list)
      78       78       70     1                 copy_list
      e8       e8        0     1         __flash_readonly_gap$$Limit = .
      e8       e8       18     4 .eh_frame
      e8       e8       14     1         D:\Renesas\RA\e2studio_v2023-07_fsp_v4.6.0\toolchains\llvm_arm\LLVM-ET-Arm-18.1.3-Windows-x86_64\bin\..\lib\clang-runtimes/arm-none-eabi/armv7em_hard_fpv4_sp_d16_exn_rtti\lib\libc.a(strlen.S.o):(.eh_frame+0x0)
     440      440        0     1 __flash_noinit$$
     440      440        0     1         __flash_noinit$$Base = .
     440      440        0     1         __flash_noinit$$Limit = .
90000000 90000000        0     1 __sdram_from_flash$$
90000000 90000000        0     1         __sdram_from_flash$$Base = .
90000000 90000000        0     1         __sdram_from_flash$$Load = LOADADDR ( __sdram_from_flash$$ )
90000000 90000000        0     1         __sdram_from_flash$$Limit = .
90000000 90000000        0     1 __sdram_noinit$$
90000000 90000000        0     1         __sdram_noinit$$Base = .
90000000 90000000        0     1         __sdram_noinit$$Limit = .
90000000 90000000        0     1 __sdram_zero$$
90000000 90000000        0     1         __sdram_zero$$Base = .
90000000 90000000        0     1         __sdram_zero$$Limit = .
90000000 90000000        0     1 .sdram.endof
90000000 90000000        0     1         __ddsc_SDRAM_END = .
1ffe0000      440       68     4 __ram_from_flash$$
1ffe0000      440        0     1         __ram_from_flash$$Base = .
1ffe0000      440        0     1         __ram_from_flash$$Load = LOADADDR ( __ram_from_flash$$ )
1ffe0000      440        4     4         ./src/new_thread0_entry.o:(.data.gp_remote_ip_address)
1ffe0000      440        4     1                 gp_remote_ip_address
1ffe0004      444        6     1         ./src/new_thread0_entry.o:(.data._ZL12ucMACAddress)
1ffe0004      444        6     1                 ucMACAddress
1ffe000a      44a        4     1         ./src/new_thread0_entry.o:(.data._ZL11ucIPAddress)
1ffe000a      44a        4     1                 ucIPAddress
1ffe000e      44e        4     1         ./src/new_thread0_entry.o:(.data._ZL9ucNetMask)
1ffe000e      44e        4     1                 ucNetMask
1ffe0012      452        4     1         ./src/new_thread0_entry.o:(.data._ZL16ucGatewayAddress)
1ffe0012      452        4     1                 ucGatewayAddress
1ffe0016      456        4     1         ./src/new_thread0_entry.o:(.data._ZL18ucDNSServerAddress)
1ffe0016      456        4     1                 ucDNSServerAddress
1ffe001a      45a        6     1         ./ra_gen/common_data.o:(.data.g_ether0_mac_address)
1ffe001a      45a        6     1                 g_ether0_mac_address
1ffe0020      460       20     4         ./ra_gen/common_data.o:(.data.pp_g_ether0_ether_buffers)
1ffe0020      460       20     1                 pp_g_ether0_ether_buffers
1ffe0040      480        8     4         ./ra_gen/common_data.o:(.data.g_freertos_plus_tcp0)
1ffe0040      480        8     1                 g_freertos_plus_tcp0
1ffe0048      488        4     4         ./ra_gen/common_data.o:(.data.gp_freertos_plus_tcp_instance)
1ffe0048      488        4     1                 gp_freertos_plus_tcp_instance
1ffe004c      48c       18     4         ./ra_gen/common_data.o:(.data.g_freertos_plus_tcp0_cfg)
1ffe004c      48c       18     1                 g_freertos_plus_tcp0_cfg
1ffe0064      4a4        4     4         ./ra/aws/FreeRTOS/FreeRTOS-Plus/Source/FreeRTOS-Plus-TCP/source/FreeRTOS_ARP.o:(.data.eARPProcessPacket.uxARPClashTimeoutPeriod)
1ffe0064      4a4        4     1                 eARPProcessPacket.uxARPClashTimeoutPeriod
1ffe0068      4a8        0     1         __ram_from_flash$$Limit = .
1ffe0068 1ffe0068      418     8 __ram_noinit$$
1ffe0068 1ffe0068        0     1         __ram_noinit$$Base = .
1ffe0068 1ffe0068      400     8         ./ra/fsp/src/bsp/cmsis/Device/RENESAS/Source/startup.o:(.bss.g_main_stack)
1ffe0068 1ffe0068      400     1                 g_main_stack
1ffe0468 1ffe0468       18     4         ./ra/fsp/src/bsp/mcu/all/bsp_clocks.o:(.ram_noinit)
1ffe0468 1ffe0468       18     1                 g_clock_freq
1ffe0480 1ffe0480        0     1         __ram_noinit$$Limit = .
1ffe0480 1ffe0480     d2a4    32 __ram_zero$$
1ffe0480 1ffe0480        0     1         __ram_zero$$Base = .
1ffe0480 1ffe0480       a8     4         ./src/SEGGER_RTT/SEGGER_RTT.o:(.bss._SEGGER_RTT)
1ffe0480 1ffe0480       a8     1                 _SEGGER_RTT
1ffe0528 1ffe0528      800     1         ./src/SEGGER_RTT/SEGGER_RTT.o:(.bss._acUpBuffer)
1ffe0528 1ffe0528      800     1                 _acUpBuffer
1ffe0d28 1ffe0d28       10     1         ./src/SEGGER_RTT/SEGGER_RTT.o:(.bss._acDownBuffer)
1ffe0d28 1ffe0d28       10     1                 _acDownBuffer
1ffe0d38 1ffe0d38        4     4         ./src/new_thread0_entry.o:(.bss.g_dhcp_in_use)
1ffe0d38 1ffe0d38        4     1                 g_dhcp_in_use
1ffe0d3c 1ffe0d3c        4     4         ./src/new_thread0_entry.o:(.bss.g_usrPingCount)
1ffe0d3c 1ffe0d3c        4     1                 g_usrPingCount
1ffe0d40 1ffe0d40        c     4         ./src/new_thread0_entry.o:(.bss.g_ping_data)
1ffe0d40 1ffe0d40        c     1                 g_ping_data
1ffe0d4c 1ffe0d4c        4     4         ./src/new_thread0_entry.o:(.bss._ZL17usr_print_ability)
1ffe0d4c 1ffe0d4c        4     1                 usr_print_ability
1ffe0d50 1ffe0d50       14     4         ./ra_gen/common_data.o:(.bss.g_ether_phy0_ctrl)
1ffe0d50 1ffe0d50       14     1                 g_ether_phy0_ctrl
1ffe0d80 1ffe0d80      600    32         ./ra_gen/common_data.o:(.bss.g_ether0_ether_buffer0)
1ffe0d80 1ffe0d80      600     1                 g_ether0_ether_buffer0
1ffe1380 1ffe1380      600    32         ./ra_gen/common_data.o:(.bss.g_ether0_ether_buffer1)
1ffe1380 1ffe1380      600     1                 g_ether0_ether_buffer1
1ffe1980 1ffe1980      600    32         ./ra_gen/common_data.o:(.bss.g_ether0_ether_buffer2)
1ffe1980 1ffe1980      600     1                 g_ether0_ether_buffer2
1ffe1f80 1ffe1f80      600    32         ./ra_gen/common_data.o:(.bss.g_ether0_ether_buffer3)
1ffe1f80 1ffe1f80      600     1                 g_ether0_ether_buffer3
1ffe2580 1ffe2580      600    32         ./ra_gen/common_data.o:(.bss.g_ether0_ether_buffer4)
1ffe2580 1ffe2580      600     1                 g_ether0_ether_buffer4
1ffe2b80 1ffe2b80      600    32         ./ra_gen/common_data.o:(.bss.g_ether0_ether_buffer5)
1ffe2b80 1ffe2b80      600     1                 g_ether0_ether_buffer5
1ffe3180 1ffe3180      600    32         ./ra_gen/common_data.o:(.bss.g_ether0_ether_buffer6)
1ffe3180 1ffe3180      600     1                 g_ether0_ether_buffer6
1ffe3780 1ffe3780      600    32         ./ra_gen/common_data.o:(.bss.g_ether0_ether_buffer7)
1ffe3780 1ffe3780      600     1                 g_ether0_ether_buffer7
1ffe3d80 1ffe3d80       40    16         ./ra_gen/common_data.o:(.bss.g_ether0_rx_descriptors)
1ffe3d80 1ffe3d80       40     1                 g_ether0_rx_descriptors
1ffe3dc0 1ffe3dc0       40    16         ./ra_gen/common_data.o:(.bss.g_ether0_tx_descriptors)
1ffe3dc0 1ffe3dc0       40     1                 g_ether0_tx_descriptors
1ffe3e00 1ffe3e00       28     4         ./ra_gen/common_data.o:(.bss.g_ether0_ctrl)
1ffe3e00 1ffe3e00       28     1                 g_ether0_ctrl
1ffe3e28 1ffe3e28       10     4         ./ra_gen/common_data.o:(.bss.g_freertos_plus_tcp0_ctrl)
1ffe3e28 1ffe3e28       10     1                 g_freertos_plus_tcp0_ctrl
1ffe3e38 1ffe3e38        8     4         ./ra_gen/common_data.o:(.bss.g_ioport_ctrl)
1ffe3e38 1ffe3e38        8     1                 g_ioport_ctrl
1ffe3e40 1ffe3e40        4     4         ./ra_gen/main.o:(.bss.g_fsp_common_initialized_semaphore)
1ffe3e40 1ffe3e40        4     1                 g_fsp_common_initialized_semaphore
1ffe3e44 1ffe3e44        1     1         ./ra_gen/main.o:(.bss.g_fsp_common_initialized)
1ffe3e44 1ffe3e44        1     1                 g_fsp_common_initialized
1ffe3e48 1ffe3e48        4     4         ./ra_gen/main.o:(.bss.g_fsp_common_thread_count)
1ffe3e48 1ffe3e48        4     1                 g_fsp_common_thread_count
1ffe3e4c 1ffe3e4c       48     4         ./ra_gen/main.o:(.bss.g_fsp_common_initialized_semaphore_memory)
1ffe3e4c 1ffe3e4c       48     1                 g_fsp_common_initialized_semaphore_memory
1ffe3e94 1ffe3e94       60     4         ./ra_gen/main.o:(.bss.vApplicationGetIdleTaskMemory.xIdleTaskTCB)
1ffe3e94 1ffe3e94       60     1                 vApplicationGetIdleTaskMemory.xIdleTaskTCB
1ffe3ef4 1ffe3ef4      200     4         ./ra_gen/main.o:(.bss.vApplicationGetIdleTaskMemory.uxIdleTaskStack)
1ffe3ef4 1ffe3ef4      200     1                 vApplicationGetIdleTaskMemory.uxIdleTaskStack
1ffe40f4 1ffe40f4       60     4         ./ra_gen/main.o:(.bss.vApplicationGetTimerTaskMemory.xTimerTaskTCB)
1ffe40f4 1ffe40f4       60     1                 vApplicationGetTimerTaskMemory.xTimerTaskTCB
1ffe4154 1ffe4154      200     4         ./ra_gen/main.o:(.bss.vApplicationGetTimerTaskMemory.uxTimerTaskStack)
1ffe4154 1ffe4154      200     1                 vApplicationGetTimerTaskMemory.uxTimerTaskStack
1ffe4354 1ffe4354       60     4         ./ra_gen/new_thread0.o:(.bss.new_thread0_memory)
1ffe4354 1ffe4354       60     1                 new_thread0_memory
1ffe43b4 1ffe43b4        4     4         ./ra_gen/new_thread0.o:(.bss.new_thread0)
1ffe43b4 1ffe43b4        4     1                 new_thread0
1ffe43b8 1ffe43b8        4     4         ./ra/fsp/src/rm_freertos_port/port.o:(.bss.uxCriticalNesting)
1ffe43b8 1ffe43b8        4     1                 uxCriticalNesting
1ffe43bc 1ffe43bc        4     4         ./ra/fsp/src/rm_freertos_port/port.o:(.bss.g_mask_level_before_disable)
1ffe43bc 1ffe43bc        4     1                 g_mask_level_before_disable
1ffe43c0 1ffe43c0       11     1         ./ra/fsp/src/rm_freertos_plus_tcp/NetworkInterface.o:(.bss.pxFSP_Eth_FillInterfaceDescriptor.pcName)
1ffe43c0 1ffe43c0       11     1                 pxFSP_Eth_FillInterfaceDescriptor.pcName
1ffe43d4 1ffe43d4       34     4         ./ra/fsp/src/bsp/mcu/all/bsp_group_irq.o:(.bss.g_bsp_group_irq_sources)
1ffe43d4 1ffe43d4       34     1                 g_bsp_group_irq_sources
1ffe4408 1ffe4408        4     4         ./ra/fsp/src/bsp/mcu/all/bsp_io.o:(.bss.g_protect_pfswe_counter)
1ffe4408 1ffe4408        4     1                 g_protect_pfswe_counter
1ffe440c 1ffe440c        4     4         ./ra/fsp/src/bsp/mcu/all/bsp_irq.o:(.bss.gp_renesas_isr_context)
1ffe440c 1ffe440c        4     1                 gp_renesas_isr_context
1ffe4410 1ffe4410        a     2         ./ra/fsp/src/bsp/mcu/all/bsp_register_protection.o:(.bss.g_protect_counters)
1ffe4410 1ffe4410        a     1                 g_protect_counters
1ffe441c 1ffe441c        4     4         ./ra/fsp/src/bsp/cmsis/Device/RENESAS/Source/system.o:(.bss.SystemCoreClock)
1ffe441c 1ffe441c        4     1                 SystemCoreClock
1ffe4420 1ffe4420        4     4         ./ra/aws/FreeRTOS/FreeRTOS/Source/portable/MemMang/heap_4.o:(.bss.pxEnd)
1ffe4420 1ffe4420        4     1                 pxEnd
1ffe4424 1ffe4424        4     4         ./ra/aws/FreeRTOS/FreeRTOS/Source/portable/MemMang/heap_4.o:(.bss.xFreeBytesRemaining)
1ffe4424 1ffe4424        4     1                 xFreeBytesRemaining
1ffe4428 1ffe4428        8     4         ./ra/aws/FreeRTOS/FreeRTOS/Source/portable/MemMang/heap_4.o:(.bss.xStart)
1ffe4428 1ffe4428        8     1                 xStart
1ffe4430 1ffe4430     8000     1         ./ra/aws/FreeRTOS/FreeRTOS/Source/portable/MemMang/heap_4.o:(.bss.ucHeap)
1ffe4430 1ffe4430     8000     1                 ucHeap
1ffec430 1ffec430        4     4         ./ra/aws/FreeRTOS/FreeRTOS/Source/portable/MemMang/heap_4.o:(.bss.xMinimumEverFreeBytesRemaining)
1ffec430 1ffec430        4     1                 xMinimumEverFreeBytesRemaining
1ffec434 1ffec434        4     4         ./ra/aws/FreeRTOS/FreeRTOS/Source/portable/MemMang/heap_4.o:(.bss.xNumberOfSuccessfulAllocations)
1ffec434 1ffec434        4     1                 xNumberOfSuccessfulAllocations
1ffec438 1ffec438        4     4         ./ra/aws/FreeRTOS/FreeRTOS/Source/portable/MemMang/heap_4.o:(.bss.xNumberOfSuccessfulFrees)
1ffec438 1ffec438        4     1                 xNumberOfSuccessfulFrees
1ffec43c 1ffec43c       50     4         ./ra/aws/FreeRTOS/FreeRTOS/Source/queue.o:(.bss.xQueueRegistry)
1ffec43c 1ffec43c       50     1                 xQueueRegistry
1ffec48c 1ffec48c        4     4         ./ra/aws/FreeRTOS/FreeRTOS/Source/tasks.o:(.bss.pxCurrentTCB)
1ffec48c 1ffec48c        4     1                 pxCurrentTCB
1ffec490 1ffec490        4     4         ./ra/aws/FreeRTOS/FreeRTOS/Source/tasks.o:(.bss.uxTaskNumber)
1ffec490 1ffec490        4     1                 uxTaskNumber
1ffec494 1ffec494        4     4         ./ra/aws/FreeRTOS/FreeRTOS/Source/tasks.o:(.bss.xSchedulerRunning)
1ffec494 1ffec494        4     1                 xSchedulerRunning
1ffec498 1ffec498       14     4         ./ra/aws/FreeRTOS/FreeRTOS/Source/tasks.o:(.bss.xTasksWaitingTermination)
1ffec498 1ffec498       14     1                 xTasksWaitingTermination
1ffec4ac 1ffec4ac        4     4         ./ra/aws/FreeRTOS/FreeRTOS/Source/tasks.o:(.bss.uxDeletedTasksWaitingCleanUp)
1ffec4ac 1ffec4ac        4     1                 uxDeletedTasksWaitingCleanUp
1ffec4b0 1ffec4b0        4     4         ./ra/aws/FreeRTOS/FreeRTOS/Source/tasks.o:(.bss.uxCurrentNumberOfTasks)
1ffec4b0 1ffec4b0        4     1                 uxCurrentNumberOfTasks
1ffec4b4 1ffec4b4        4     4         ./ra/aws/FreeRTOS/FreeRTOS/Source/tasks.o:(.bss.uxSchedulerSuspended)
1ffec4b4 1ffec4b4        4     1                 uxSchedulerSuspended
1ffec4b8 1ffec4b8        4     4         ./ra/aws/FreeRTOS/FreeRTOS/Source/tasks.o:(.bss.xTickCount)
1ffec4b8 1ffec4b8        4     1                 xTickCount
1ffec4bc 1ffec4bc       64     4         ./ra/aws/FreeRTOS/FreeRTOS/Source/tasks.o:(.bss.pxReadyTasksLists)
1ffec4bc 1ffec4bc       64     1                 pxReadyTasksLists
1ffec520 1ffec520        4     4         ./ra/aws/FreeRTOS/FreeRTOS/Source/tasks.o:(.bss.uxTopReadyPriority)
1ffec520 1ffec520        4     1                 uxTopReadyPriority
1ffec524 1ffec524       14     4         ./ra/aws/FreeRTOS/FreeRTOS/Source/tasks.o:(.bss.xSuspendedTaskList)
1ffec524 1ffec524       14     1                 xSuspendedTaskList
1ffec538 1ffec538        4     4         ./ra/aws/FreeRTOS/FreeRTOS/Source/tasks.o:(.bss.xYieldPendings)
1ffec538 1ffec538        4     1                 xYieldPendings
1ffec53c 1ffec53c       14     4         ./ra/aws/FreeRTOS/FreeRTOS/Source/tasks.o:(.bss.xPendingReadyList)
1ffec53c 1ffec53c       14     1                 xPendingReadyList
1ffec550 1ffec550        4     4         ./ra/aws/FreeRTOS/FreeRTOS/Source/tasks.o:(.bss.xNextTaskUnblockTime)
1ffec550 1ffec550        4     1                 xNextTaskUnblockTime
1ffec554 1ffec554        4     4         ./ra/aws/FreeRTOS/FreeRTOS/Source/tasks.o:(.bss.xIdleTaskHandles.0)
1ffec554 1ffec554        4     1                 xIdleTaskHandles.0
1ffec558 1ffec558        4     4         ./ra/aws/FreeRTOS/FreeRTOS/Source/tasks.o:(.bss.xPendedTicks)
1ffec558 1ffec558        4     1                 xPendedTicks
1ffec55c 1ffec55c        4     4         ./ra/aws/FreeRTOS/FreeRTOS/Source/tasks.o:(.bss.pxDelayedTaskList)
1ffec55c 1ffec55c        4     1                 pxDelayedTaskList
1ffec560 1ffec560        4     4         ./ra/aws/FreeRTOS/FreeRTOS/Source/tasks.o:(.bss.pxOverflowDelayedTaskList)
1ffec560 1ffec560        4     1                 pxOverflowDelayedTaskList
1ffec564 1ffec564        4     4         ./ra/aws/FreeRTOS/FreeRTOS/Source/tasks.o:(.bss.xNumOfOverflows)
1ffec564 1ffec564        4     1                 xNumOfOverflows
1ffec568 1ffec568       14     4         ./ra/aws/FreeRTOS/FreeRTOS/Source/tasks.o:(.bss.xDelayedTaskList1)
1ffec568 1ffec568       14     1                 xDelayedTaskList1
1ffec57c 1ffec57c       14     4         ./ra/aws/FreeRTOS/FreeRTOS/Source/tasks.o:(.bss.xDelayedTaskList2)
1ffec57c 1ffec57c       14     1                 xDelayedTaskList2
1ffec590 1ffec590        4     4         ./ra/aws/FreeRTOS/FreeRTOS/Source/timers.o:(.bss.xTimerQueue)
1ffec590 1ffec590        4     1                 xTimerQueue
1ffec594 1ffec594        4     4         ./ra/aws/FreeRTOS/FreeRTOS/Source/timers.o:(.bss.xTimerTaskHandle)
1ffec594 1ffec594        4     1                 xTimerTaskHandle
1ffec598 1ffec598        4     4         ./ra/aws/FreeRTOS/FreeRTOS/Source/timers.o:(.bss.pxCurrentTimerList)
1ffec598 1ffec598        4     1                 pxCurrentTimerList
1ffec59c 1ffec59c        4     4         ./ra/aws/FreeRTOS/FreeRTOS/Source/timers.o:(.bss.pxOverflowTimerList)
1ffec59c 1ffec59c        4     1                 pxOverflowTimerList
1ffec5a0 1ffec5a0        4     4         ./ra/aws/FreeRTOS/FreeRTOS/Source/timers.o:(.bss.prvSampleTimeNow.xLastTime)
1ffec5a0 1ffec5a0        4     1                 prvSampleTimeNow.xLastTime
1ffec5a4 1ffec5a4       14     4         ./ra/aws/FreeRTOS/FreeRTOS/Source/timers.o:(.bss.xActiveTimerList1)
1ffec5a4 1ffec5a4       14     1                 xActiveTimerList1
1ffec5b8 1ffec5b8       14     4         ./ra/aws/FreeRTOS/FreeRTOS/Source/timers.o:(.bss.xActiveTimerList2)
1ffec5b8 1ffec5b8       14     1                 xActiveTimerList2
1ffec5cc 1ffec5cc       48     4         ./ra/aws/FreeRTOS/FreeRTOS/Source/timers.o:(.bss.prvCheckForValidListAndQueue.xStaticTimerQueue)
1ffec5cc 1ffec5cc       48     1                 prvCheckForValidListAndQueue.xStaticTimerQueue
1ffec614 1ffec614       78     1         ./ra/aws/FreeRTOS/FreeRTOS/Source/timers.o:(.bss.prvCheckForValidListAndQueue.ucStaticTimerQueueStorage)
1ffec614 1ffec614       78     1                 prvCheckForValidListAndQueue.ucStaticTimerQueueStorage
1ffec68c 1ffec68c      230     4         ./ra/aws/FreeRTOS/FreeRTOS-Plus/Source/FreeRTOS-Plus-TCP/source/portable/BufferManagement/BufferAllocation_2.o:(.bss.xNetworkBuffersInitialise.xNetworkBufferDescriptors)
1ffec68c 1ffec68c      230     1                 xNetworkBuffersInitialise.xNetworkBufferDescriptors
1ffec8bc 1ffec8bc        4     4         ./ra/aws/FreeRTOS/FreeRTOS-Plus/Source/FreeRTOS-Plus-TCP/source/portable/BufferManagement/BufferAllocation_2.o:(.bss.xNetworkBufferSemaphore)
1ffec8bc 1ffec8bc        4     1                 xNetworkBufferSemaphore
1ffec8c0 1ffec8c0       48     4         ./ra/aws/FreeRTOS/FreeRTOS-Plus/Source/FreeRTOS-Plus-TCP/source/portable/BufferManagement/BufferAllocation_2.o:(.bss.xNetworkBuffersInitialise.xNetworkBufferSemaphoreBuffer)
1ffec8c0 1ffec8c0       48     1                 xNetworkBuffersInitialise.xNetworkBufferSemaphoreBuffer
1ffec908 1ffec908       14     4         ./ra/aws/FreeRTOS/FreeRTOS-Plus/Source/FreeRTOS-Plus-TCP/source/portable/BufferManagement/BufferAllocation_2.o:(.bss.xFreeBuffersList)
1ffec908 1ffec908       14     1                 xFreeBuffersList
1ffec91c 1ffec91c        4     4         ./ra/aws/FreeRTOS/FreeRTOS-Plus/Source/FreeRTOS-Plus-TCP/source/portable/BufferManagement/BufferAllocation_2.o:(.bss.uxMinimumFreeNetworkBuffers)
1ffec91c 1ffec91c        4     1                 uxMinimumFreeNetworkBuffers
1ffec920 1ffec920        1     4         ./ra/aws/FreeRTOS/FreeRTOS-Plus/Source/FreeRTOS-Plus-TCP/source/FreeRTOS_ARP.o:(.bss.eARPProcessPacket.uxARPClashCounter)
1ffec920 1ffec920        1     1                 eARPProcessPacket.uxARPClashCounter
1ffec924 1ffec924        8     4         ./ra/aws/FreeRTOS/FreeRTOS-Plus/Source/FreeRTOS-Plus-TCP/source/FreeRTOS_ARP.o:(.bss.eARPProcessPacket.xARPClashTimeOut)
1ffec924 1ffec924        8     1                 eARPProcessPacket.xARPClashTimeOut
1ffec92c 1ffec92c        4     4         ./ra/aws/FreeRTOS/FreeRTOS-Plus/Source/FreeRTOS-Plus-TCP/source/FreeRTOS_ARP.o:(.bss.xLastGratuitousARPTime)
1ffec92c 1ffec92c        4     1                 xLastGratuitousARPTime
1ffec930 1ffec930       60     4         ./ra/aws/FreeRTOS/FreeRTOS-Plus/Source/FreeRTOS-Plus-TCP/source/FreeRTOS_ARP.o:(.bss.xARPCache)
1ffec930 1ffec930       60     1                 xARPCache
1ffec990 1ffec990      11c     4         ./ra/aws/FreeRTOS/FreeRTOS-Plus/Source/FreeRTOS-Plus-TCP/source/FreeRTOS_DNS_Cache.o:(.bss.xDNSCache)
1ffec990 1ffec990      11c     1                 xDNSCache
1ffecaac 1ffecaac        4     4         ./ra/aws/FreeRTOS/FreeRTOS-Plus/Source/FreeRTOS-Plus-TCP/source/FreeRTOS_IP.o:(.bss.pxARPWaitingNetworkBuffer)
1ffecaac 1ffecaac        4     1                 pxARPWaitingNetworkBuffer
1ffecab0 1ffecab0        4     4         ./ra/aws/FreeRTOS/FreeRTOS-Plus/Source/FreeRTOS-Plus-TCP/source/FreeRTOS_IP.o:(.bss.xNetworkEventQueue)
1ffecab0 1ffecab0        4     1                 xNetworkEventQueue
1ffecab4 1ffecab4        2     2         ./ra/aws/FreeRTOS/FreeRTOS-Plus/Source/FreeRTOS-Plus-TCP/source/FreeRTOS_IP.o:(.bss.usPacketIdentifier)
1ffecab4 1ffecab4        2     1                 usPacketIdentifier
1ffecab8 1ffecab8        4     4         ./ra/aws/FreeRTOS/FreeRTOS-Plus/Source/FreeRTOS-Plus-TCP/source/FreeRTOS_IP.o:(.bss.xIPTaskHandle)
1ffecab8 1ffecab8        4     1                 xIPTaskHandle
1ffecabc 1ffecabc        4     4         ./ra/aws/FreeRTOS/FreeRTOS-Plus/Source/FreeRTOS-Plus-TCP/source/FreeRTOS_IP.o:(.bss.xNetworkDownEventPending)
1ffecabc 1ffecabc        4     1                 xNetworkDownEventPending
1ffecac0 1ffecac0       28     4         ./ra/aws/FreeRTOS/FreeRTOS-Plus/Source/FreeRTOS-Plus-TCP/source/FreeRTOS_IP.o:(.bss.FreeRTOS_IPInit.xInterfaces)
1ffecac0 1ffecac0       28     1                 FreeRTOS_IPInit.xInterfaces
1ffecae8 1ffecae8       74     4         ./ra/aws/FreeRTOS/FreeRTOS-Plus/Source/FreeRTOS-Plus-TCP/source/FreeRTOS_IP.o:(.bss.FreeRTOS_IPInit.xEndPoints)
1ffecae8 1ffecae8       74     1                 FreeRTOS_IPInit.xEndPoints
1ffecb5c 1ffecb5c       48     4         ./ra/aws/FreeRTOS/FreeRTOS-Plus/Source/FreeRTOS-Plus-TCP/source/FreeRTOS_IP.o:(.bss.FreeRTOS_IPInit_Multi.xNetworkEventStaticQueue)
1ffecb5c 1ffecb5c       48     1                 FreeRTOS_IPInit_Multi.xNetworkEventStaticQueue
1ffecba4 1ffecba4       78     1         ./ra/aws/FreeRTOS/FreeRTOS-Plus/Source/FreeRTOS-Plus-TCP/source/FreeRTOS_IP.o:(.bss.FreeRTOS_IPInit_Multi.ucNetworkEventQueueStorageArea)
1ffecba4 1ffecba4       78     1                 FreeRTOS_IPInit_Multi.ucNetworkEventQueueStorageArea
1ffecc1c 1ffecc1c       60     4         ./ra/aws/FreeRTOS/FreeRTOS-Plus/Source/FreeRTOS-Plus-TCP/source/FreeRTOS_IP.o:(.bss.FreeRTOS_IPInit_Multi.xIPTaskBuffer)
1ffecc1c 1ffecc1c       60     1                 FreeRTOS_IPInit_Multi.xIPTaskBuffer
1ffecc7c 1ffecc7c      a00     4         ./ra/aws/FreeRTOS/FreeRTOS-Plus/Source/FreeRTOS-Plus-TCP/source/FreeRTOS_IP.o:(.bss.FreeRTOS_IPInit_Multi.xIPTaskStack)
1ffecc7c 1ffecc7c      a00     1                 FreeRTOS_IPInit_Multi.xIPTaskStack
1ffed67c 1ffed67c        2     2         ./ra/aws/FreeRTOS/FreeRTOS-Plus/Source/FreeRTOS-Plus-TCP/source/FreeRTOS_IP.o:(.bss.FreeRTOS_SendPingRequest.usSequenceNumber)
1ffed67c 1ffed67c        2     1                 FreeRTOS_SendPingRequest.usSequenceNumber
1ffed680 1ffed680        1     4         ./ra/aws/FreeRTOS/FreeRTOS-Plus/Source/FreeRTOS-Plus-TCP/source/FreeRTOS_IP.o:(.bss.xIPTaskInitialised)
1ffed680 1ffed680        1     1                 xIPTaskInitialised
1ffed684 1ffed684       14     4         ./ra/aws/FreeRTOS/FreeRTOS-Plus/Source/FreeRTOS-Plus-TCP/source/FreeRTOS_IP_Timers.o:(.bss.xARPTimer)
1ffed684 1ffed684       14     1                 xARPTimer
1ffed698 1ffed698       14     4         ./ra/aws/FreeRTOS/FreeRTOS-Plus/Source/FreeRTOS-Plus-TCP/source/FreeRTOS_IP_Timers.o:(.bss.xTCPTimer)
1ffed698 1ffed698       14     1                 xTCPTimer
1ffed6ac 1ffed6ac       14     4         ./ra/aws/FreeRTOS/FreeRTOS-Plus/Source/FreeRTOS-Plus-TCP/source/FreeRTOS_IP_Timers.o:(.bss.xARPResolutionTimer)
1ffed6ac 1ffed6ac       14     1                 xARPResolutionTimer
1ffed6c0 1ffed6c0        4     4         ./ra/aws/FreeRTOS/FreeRTOS-Plus/Source/FreeRTOS-Plus-TCP/source/FreeRTOS_IP_Timers.o:(.bss.xAllNetworksUp)
1ffed6c0 1ffed6c0        4     1                 xAllNetworksUp
1ffed6c4 1ffed6c4       14     4         ./ra/aws/FreeRTOS/FreeRTOS-Plus/Source/FreeRTOS-Plus-TCP/source/FreeRTOS_IP_Timers.o:(.bss.xNetworkTimer)
1ffed6c4 1ffed6c4       14     1                 xNetworkTimer
1ffed6d8 1ffed6d8        4     4         ./ra/aws/FreeRTOS/FreeRTOS-Plus/Source/FreeRTOS-Plus-TCP/source/FreeRTOS_Routing.o:(.bss.pxNetworkEndPoints)
1ffed6d8 1ffed6d8        4     1                 pxNetworkEndPoints
1ffed6dc 1ffed6dc        4     4         ./ra/aws/FreeRTOS/FreeRTOS-Plus/Source/FreeRTOS-Plus-TCP/source/FreeRTOS_Routing.o:(.bss.pxNetworkInterfaces)
1ffed6dc 1ffed6dc        4     1                 pxNetworkInterfaces
1ffed6e0 1ffed6e0       14     4         ./ra/aws/FreeRTOS/FreeRTOS-Plus/Source/FreeRTOS-Plus-TCP/source/FreeRTOS_Sockets.o:(.bss.xBoundUDPSocketsList)
1ffed6e0 1ffed6e0       14     1                 xBoundUDPSocketsList
1ffed6f4 1ffed6f4       14     4         ./ra/aws/FreeRTOS/FreeRTOS-Plus/Source/FreeRTOS-Plus-TCP/source/FreeRTOS_Sockets.o:(.bss.xBoundTCPSocketsList)
1ffed6f4 1ffed6f4       14     1                 xBoundTCPSocketsList
1ffed708 1ffed708        4     4         ./ra/aws/FreeRTOS/FreeRTOS-Plus/Source/FreeRTOS-Plus-TCP/source/FreeRTOS_Sockets.o:(.bss.xTCPTimerCheck.xLastTime)
1ffed708 1ffed708        4     1                 xTCPTimerCheck.xLastTime
1ffed70c 1ffed70c        4     4         ./ra/aws/FreeRTOS/FreeRTOS-Plus/Source/FreeRTOS-Plus-TCP/source/FreeRTOS_TCP_IP.o:(.bss.xSocketToClose)
1ffed70c 1ffed70c        4     1                 xSocketToClose
1ffed710 1ffed710        4     4         ./ra/aws/FreeRTOS/FreeRTOS-Plus/Source/FreeRTOS-Plus-TCP/source/FreeRTOS_TCP_IP.o:(.bss.xSocketToListen)
1ffed710 1ffed710        4     1                 xSocketToListen
1ffed720 1ffed720        4    16         D:\Renesas\RA\e2studio_v2023-07_fsp_v4.6.0\toolchains\llvm_arm\LLVM-ET-Arm-18.1.3-Windows-x86_64\bin\..\lib\clang-runtimes/arm-none-eabi/armv7em_hard_fpv4_sp_d16_exn_rtti\lib\libc.a(libc_picolib_machine_arm_read_tp.S.o):(.bss)
1ffed720 1ffed720        4     1                 __tls
1ffed724 1ffed724        0     1         __ram_zero$$Limit = .
1ffed728      4b0        8     8 __ram_tdata$$
1ffed728      4b0        0     1         __ram_tdata$$Base = .
1ffed728      4b0        0     1         __ram_tdata$$Load = LOADADDR ( __ram_tdata$$ )
1ffed728      4b0        8     8         D:\Renesas\RA\e2studio_v2023-07_fsp_v4.6.0\toolchains\llvm_arm\LLVM-ET-Arm-18.1.3-Windows-x86_64\bin\..\lib\clang-runtimes/arm-none-eabi/armv7em_hard_fpv4_sp_d16_exn_rtti\lib\libc.a(libc_stdlib_random.c.o):(.tdata)
       0 ffffffffe0012d88        8     1                 _rand_next
1ffed730      4b8        0     1         __ram_tdata$$Limit = .
1ffed730 1ffed730        0     1 __ram_tbss$$
1ffed730 1ffed730        0     1         __ram_tbss$$Base = .
1ffed730 1ffed730        0     1         __ram_tbss$$Limit = .
1ffed730 1ffed730     1000     8 __ram_thread_stack$$
1ffed730 1ffed730        0     1         __ram_thread_stack$$Base = .
1ffed730 1ffed730     1000     8         ./ra_gen/new_thread0.o:(.stack.new_thread0)
1ffed730 1ffed730     1000     1                 new_thread0_stack
1ffee730 1ffee730        0     1         __ram_thread_stack$$Limit = .
1ffee800 1ffee800        0     1 .ram.endof
1ffee800 1ffee800        0     1         __ddsc_RAM_END = .
     4c0      4c0     e552    16 __flash_readonly$$
     4c0      4c0        0     1         __flash_readonly$$Base = .
     4c0      4c0      174     4         ./src/SEGGER_RTT/SEGGER_RTT.o:(.text.SEGGER_RTT_WriteNoLock)
     4c0      4c0        0     1                 $t.6
     4c1      4c1      174     1                 SEGGER_RTT_WriteNoLock
     634      634       a2     4         ./src/SEGGER_RTT/SEGGER_RTT.o:(.text.SEGGER_RTT_Write)
     634      634        0     1                 $t.8
     635      635       a2     1                 SEGGER_RTT_Write
     6d8      6d8      4ac     4         ./src/SEGGER_RTT/SEGGER_RTT_printf.o:(.text.SEGGER_RTT_vprintf)
     6d8      6d8        0     1                 $t.0
     6d9      6d9      4ac     1                 SEGGER_RTT_vprintf
     784      784        0     1                 $d.1
     792      792        0     1                 $t.2
     858      858        0     1                 $d.3
     87a      87a        0     1                 $t.4
     b84      b84      184     4         ./src/SEGGER_RTT/SEGGER_RTT_printf.o:(.text._PrintUnsigned)
     b84      b84        0     1                 $t.5
     b85      b85      184     1                 _PrintUnsigned
     d08      d08       22     4         ./src/SEGGER_RTT/SEGGER_RTT_printf.o:(.text.SEGGER_RTT_printf)
     d08      d08        0     1                 $t.6
     d09      d09       22     1                 SEGGER_RTT_printf
     d2c      d2c       1a     4         ./src/hal_warmstart.o:(.text.R_BSP_WarmStart)
     d2c      d2c        0     1                 $t.0
     d2d      d2d       1a     1                 R_BSP_WarmStart
     d48      d48       1a     4         ./src/new_thread0_entry.o:(.text.vApplicationPingReplyHook)
     d48      d48        0     1                 $t.0
     d49      d49       1a     1                 vApplicationPingReplyHook
     d64      d64      110     4         ./src/new_thread0_entry.o:(.text._Z14print_ipconfigv)
     d64      d64        0     1                 $t.1
     d65      d65      110     1                 print_ipconfig()
     e74      e74      1e4     4         ./src/new_thread0_entry.o:(.text.new_thread0_entry)
     e74      e74        0     1                 $t.5
     e75      e75      1e4     1                 new_thread0_entry
    1058     1058        2     4         ./ra_gen/common_data.o:(.text.g_common_init)
    1058     1058        0     1                 $t.0
    1059     1059        2     1                 g_common_init
    105c     105c        4     4         ./ra_gen/hal_data.o:(.text.g_hal_init)
    105c     105c        0     1                 $t.0
    105d     105d        4     1                 g_hal_init
    1060     1060        4     4         ./ra_gen/main.o:(.text.rtos_startup_err_callback_internal)
    1060     1060        0     1                 $t.0
    1061     1061        4     1                 rtos_startup_err_callback_internal
    1061     1061        4     1                 rtos_startup_err_callback
    1064     1064       64     4         ./ra_gen/main.o:(.text.rtos_startup_common_init)
    1064     1064        0     1                 $t.1
    1065     1065       64     1                 rtos_startup_common_init
    10c8     10c8       4c     4         ./ra_gen/main.o:(.text.main)
    10c8     10c8        0     1                 $t.2
    10c9     10c9       4c     1                 main
    1114     1114       1a     4         ./ra_gen/main.o:(.text.vApplicationGetIdleTaskMemory)
    1114     1114        0     1                 $t.3
    1115     1115       1a     1                 vApplicationGetIdleTaskMemory
    1130     1130       1a     4         ./ra_gen/main.o:(.text.vApplicationGetTimerTaskMemory)
    1130     1130        0     1                 $t.4
    1131     1131       1a     1                 vApplicationGetTimerTaskMemory
    114c     114c       6e     4         ./ra_gen/new_thread0.o:(.text.new_thread0_create)
    114c     114c        0     1                 $t.0
    114d     114d       6e     1                 new_thread0_create
    11bc     11bc       14     4         ./ra_gen/new_thread0.o:(.text.new_thread0_func)
    11bc     11bc        0     1                 $t.1
    11bd     11bd       14     1                 new_thread0_func
    11d0     11d0       18     4         ./ra/fsp/src/rm_freertos_port/port.o:(.text.SVC_Handler)
    11d0     11d0        0     1                 $t.0
    11d1     11d1       12     1                 SVC_Handler
    11e4     11e4        0     1                 $d.15
    11e8     11e8       3c     4         ./ra/fsp/src/rm_freertos_port/port.o:(.text.PendSV_Handler)
    11e8     11e8        0     1                 $t.1
    11e9     11e9       38     1                 PendSV_Handler
    1220     1220        0     1                 $d.16
    1224     1224       20     4         ./ra/fsp/src/rm_freertos_port/port.o:(.text.rm_freertos_port_restore_task_stackless)
    1224     1224        0     1                 $t.2
    1225     1225       1a     1                 rm_freertos_port_restore_task_stackless
    1238     1238        0     1                 _skip_restore_ns_context
    1240     1240        0     1                 $d.17
    1244     1244       28     4         ./ra/fsp/src/rm_freertos_port/port.o:(.text.SysTick_Handler)
    1244     1244        0     1                 $t.3
    1245     1245       28     1                 SysTick_Handler
    126c     126c       38     4         ./ra/fsp/src/rm_freertos_port/port.o:(.text.vPortSVCHandler_C)
    126c     126c        0     1                 $t.4
    126d     126d       38     1                 vPortSVCHandler_C
    12a4     12a4       24     4         ./ra/fsp/src/rm_freertos_port/port.o:(.text.pxPortInitialiseStack)
    12a4     12a4        0     1                 $t.5
    12a5     12a5       24     1                 pxPortInitialiseStack
    12c8     12c8        6     4         ./ra/fsp/src/rm_freertos_port/port.o:(.text.prvTaskExitError)
    12c8     12c8        0     1                 $t.6
    12c9     12c9        6     1                 prvTaskExitError
    12d0     12d0       40     4         ./ra/fsp/src/rm_freertos_port/port.o:(.text.xPortStartScheduler)
    12d0     12d0        0     1                 $t.7
    12d1     12d1       40     1                 xPortStartScheduler
    1310     1310       46     4         ./ra/fsp/src/rm_freertos_port/port.o:(.text.vPortSetupTimerInterrupt)
    1310     1310        0     1                 $t.8
    1311     1311       46     1                 vPortSetupTimerInterrupt
    1358     1358       5c     4         ./ra/fsp/src/rm_freertos_port/port.o:(.text.vPortEnterCritical)
    1358     1358        0     1                 $t.10
    1359     1359       5c     1                 vPortEnterCritical
    13b4     13b4       48     4         ./ra/fsp/src/rm_freertos_port/port.o:(.text.vPortExitCritical)
    13b4     13b4        0     1                 $t.11
    13b5     13b5       48     1                 vPortExitCritical
    13fc     13fc       7a     4         ./ra/fsp/src/rm_freertos_port/port.o:(.text.vApplicationIdleHook)
    13fc     13fc        0     1                 $t.13
    13fd     13fd       7a     1                 vApplicationIdleHook
    1478     1478       70     4         ./ra/fsp/src/rm_freertos_port/port.o:(.text.vPortValidateInterruptPriority)
    1478     1478        0     1                 $t.14
    1479     1479       70     1                 vPortValidateInterruptPriority
    14e8     14e8       76     4         ./ra/fsp/src/rm_freertos_plus_tcp/NetworkInterface.o:(.text.vEtherISRCallback)
    14e8     14e8        0     1                 $t.0
    14e9     14e9       76     1                 vEtherISRCallback
    1560     1560      10e     4         ./ra/fsp/src/rm_freertos_plus_tcp/NetworkInterface.o:(.text.xFSP_Eth_NetworkInterfaceInitialise)
    1560     1560        0     1                 $t.3
    1561     1561      10e     1                 xFSP_Eth_NetworkInterfaceInitialise
    1670     1670       48     4         ./ra/fsp/src/rm_freertos_plus_tcp/NetworkInterface.o:(.text.xFSP_Eth_NetworkInterfaceOutput)
    1670     1670        0     1                 $t.4
    1671     1671       48     1                 xFSP_Eth_NetworkInterfaceOutput
    16b8     16b8       22     4         ./ra/fsp/src/rm_freertos_plus_tcp/NetworkInterface.o:(.text.xFSP_Eth_GetPhyLinkStatus)
    16b8     16b8        0     1                 $t.5
    16b9     16b9       22     1                 xFSP_Eth_GetPhyLinkStatus
    16dc     16dc       86     4         ./ra/fsp/src/rm_freertos_plus_tcp/NetworkInterface.o:(.text.pxFillInterfaceDescriptor)
    16dc     16dc        0     1                 $t.6
    16dd     16dd       86     1                 pxFillInterfaceDescriptor
    1764     1764       1a     4         ./ra/fsp/src/rm_freertos_plus_tcp/NetworkInterface.o:(.text.xApplicationGetRandomNumber)
    1764     1764        0     1                 $t.7
    1765     1765       1a     1                 xApplicationGetRandomNumber
    1780     1780       1c     4         ./ra/fsp/src/rm_freertos_plus_tcp/NetworkInterface.o:(.text.ulApplicationGetNextSequenceNumber)
    1780     1780        0     1                 $t.8
    1781     1781       1c     1                 ulApplicationGetNextSequenceNumber
    179c     179c       b0     4         ./ra/fsp/src/rm_freertos_plus_tcp/NetworkInterface.o:(.text.prvRXHandlerTask)
    179c     179c        0     1                 $t.9
    179d     179d       b0     1                 prvRXHandlerTask
    184c     184c       6e     4         ./ra/fsp/src/rm_freertos_plus_tcp/NetworkInterface.o:(.text.prvCheckLinkStatusTask)
    184c     184c        0     1                 $t.10
    184d     184d       6e     1                 prvCheckLinkStatusTask
    18bc     18bc       18     4         ./ra/fsp/src/r_ioport/r_ioport.o:(.text.R_IOPORT_Open)
    18bc     18bc        0     1                 $t.0
    18bd     18bd       18     1                 R_IOPORT_Open
    18d4     18d4       cc     4         ./ra/fsp/src/r_ioport/r_ioport.o:(.text.r_ioport_pins_config)
    18d4     18d4        0     1                 $t.13
    18d5     18d5       cc     1                 r_ioport_pins_config
    19a0     19a0       de     4         ./ra/fsp/src/r_ioport/r_ioport.o:(.text.bsp_vbatt_init)
    19a0     19a0        0     1                 $t.14
    19a1     19a1       de     1                 bsp_vbatt_init
    1a80     1a80       88     4         ./ra/fsp/src/r_ether_phy/r_ether_phy.o:(.text.R_ETHER_PHY_Open)
    1a80     1a80        0     1                 $t.0
    1a81     1a81       88     1                 R_ETHER_PHY_Open
    1b08     1b08       12     4         ./ra/fsp/src/r_ether_phy/r_ether_phy.o:(.text.R_ETHER_PHY_Close)
    1b08     1b08        0     1                 $t.1
    1b09     1b09       12     1                 R_ETHER_PHY_Close
    1b1c     1b1c       54     4         ./ra/fsp/src/r_ether_phy/r_ether_phy.o:(.text.R_ETHER_PHY_ChipInit)
    1b1c     1b1c        0     1                 $t.2
    1b1d     1b1d       54     1                 R_ETHER_PHY_ChipInit
    1b70     1b70      1c6     4         ./ra/fsp/src/r_ether_phy/r_ether_phy.o:(.text.R_ETHER_PHY_Read)
    1b70     1b70        0     1                 $t.3
    1b71     1b71      1c6     1                 R_ETHER_PHY_Read
    1d38     1d38      23e     4         ./ra/fsp/src/r_ether_phy/r_ether_phy.o:(.text.R_ETHER_PHY_Write)
    1d38     1d38        0     1                 $t.4
    1d39     1d39      23e     1                 R_ETHER_PHY_Write
    1f78     1f78       3e     4         ./ra/fsp/src/r_ether_phy/r_ether_phy.o:(.text.R_ETHER_PHY_StartAutoNegotiate)
    1f78     1f78        0     1                 $t.5
    1f79     1f79       3e     1                 R_ETHER_PHY_StartAutoNegotiate
    1fb8     1fb8       b6     4         ./ra/fsp/src/r_ether_phy/r_ether_phy.o:(.text.R_ETHER_PHY_LinkPartnerAbilityGet)
    1fb8     1fb8        0     1                 $t.6
    1fb9     1fb9       b6     1                 R_ETHER_PHY_LinkPartnerAbilityGet
    2070     2070       2e     4         ./ra/fsp/src/r_ether_phy/r_ether_phy.o:(.text.R_ETHER_PHY_LinkStatusGet)
    2070     2070        0     1                 $t.7
    2071     2071       2e     1                 R_ETHER_PHY_LinkStatusGet
    20a0     20a0       f0     4         ./ra/fsp/src/r_ether_phy/r_ether_phy.o:(.text.ether_phy_reg_set)
    20a0     20a0        0     1                 $t.8
    20a1     20a1       f0     1                 ether_phy_reg_set
    2190     2190      1d8     4         ./ra/fsp/src/r_ether/r_ether.o:(.text.R_ETHER_Open)
    2190     2190        0     1                 $t.0
    2191     2191      1d8     1                 R_ETHER_Open
    2368     2368       aa     4         ./ra/fsp/src/r_ether/r_ether.o:(.text.R_ETHER_Close)
    2368     2368        0     1                 $t.1
    2369     2369       aa     1                 R_ETHER_Close
    2414     2414      116     4         ./ra/fsp/src/r_ether/r_ether.o:(.text.R_ETHER_Read)
    2414     2414        0     1                 $t.2
    2415     2415      116     1                 R_ETHER_Read
    252c     252c       54     4         ./ra/fsp/src/r_ether/r_ether.o:(.text.R_ETHER_BufferRelease)
    252c     252c        0     1                 $t.3
    252d     252d       54     1                 R_ETHER_BufferRelease
    2580     2580       40     4         ./ra/fsp/src/r_ether/r_ether.o:(.text.R_ETHER_RxBufferUpdate)
    2580     2580        0     1                 $t.4
    2581     2581       40     1                 R_ETHER_RxBufferUpdate
    25c0     25c0       98     4         ./ra/fsp/src/r_ether/r_ether.o:(.text.R_ETHER_Write)
    25c0     25c0        0     1                 $t.5
    25c1     25c1       98     1                 R_ETHER_Write
    2658     2658      2c2     4         ./ra/fsp/src/r_ether/r_ether.o:(.text.R_ETHER_LinkProcess)
    2658     2658        0     1                 $t.6
    2659     2659      2c2     1                 R_ETHER_LinkProcess
    291c     291c       46     4         ./ra/fsp/src/r_ether/r_ether.o:(.text.R_ETHER_WakeOnLANEnable)
    291c     291c        0     1                 $t.7
    291d     291d       46     1                 R_ETHER_WakeOnLANEnable
    2964     2964       34     4         ./ra/fsp/src/r_ether/r_ether.o:(.text.R_ETHER_TxStatusGet)
    2964     2964        0     1                 $t.8
    2965     2965       34     1                 R_ETHER_TxStatusGet
    2998     2998        e     4         ./ra/fsp/src/r_ether/r_ether.o:(.text.R_ETHER_CallbackSet)
    2998     2998        0     1                 $t.9
    2999     2999        e     1                 R_ETHER_CallbackSet
    29a8     29a8      1e2     4         ./ra/fsp/src/r_ether/r_ether.o:(.text.ether_configure_mac)
    29a8     29a8        0     1                 $t.10
    29a9     29a9      1e2     1                 ether_configure_mac
    2b8c     2b8c      154     4         ./ra/fsp/src/r_ether/r_ether.o:(.text.ether_do_link)
    2b8c     2b8c        0     1                 $t.11
    2b8d     2b8d      154     1                 ether_do_link
    2bcc     2bcc        0     1                 $d.12
    2bd0     2bd0        0     1                 $t.13
    2ce0     2ce0      188     4         ./ra/fsp/src/r_ether/r_ether.o:(.text.ether_eint_isr)
    2ce0     2ce0        0     1                 $t.14
    2ce1     2ce1      188     1                 ether_eint_isr
    2e68     2e68       2c     4         ./ra/fsp/src/bsp/mcu/all/bsp_clocks.o:(.text.SystemCoreClockUpdate)
    2e68     2e68        0     1                 $t.2
    2e69     2e69       2c     1                 SystemCoreClockUpdate
    2e94     2e94      142     4         ./ra/fsp/src/bsp/mcu/all/bsp_clocks.o:(.text.bsp_clock_init)
    2e94     2e94        0     1                 $t.7
    2e95     2e95      142     1                 bsp_clock_init
    2fd8     2fd8        2     4         ./ra/fsp/src/bsp/mcu/all/bsp_clocks.o:(.text.R_BSP_SubClockStabilizeWaitAfterReset)
    2fd8     2fd8        0     1                 $t.9
    2fd9     2fd9        2     1                 R_BSP_SubClockStabilizeWaitAfterReset
    2fdc     2fdc       7e     4         ./ra/fsp/src/bsp/mcu/all/bsp_clocks.o:(.text.R_BSP_Init_RTC)
    2fdc     2fdc        0     1                 $t.12
    2fdd     2fdd       7e     1                 R_BSP_Init_RTC
    305c     305c        2     4         ./ra/fsp/src/bsp/mcu/all/bsp_common.o:(.text.bsp_init_internal)
    305c     305c        0     1                 $t.0
    305d     305d        2     1                 bsp_init_internal
    305d     305d        2     1                 bsp_init
    3060     3060        e     4         ./ra/fsp/src/bsp/mcu/all/bsp_common.o:(.text.R_FSP_VersionGet)
    3060     3060        0     1                 $t.1
    3061     3061        e     1                 R_FSP_VersionGet
    3070     3070        6     4         ./ra/fsp/src/bsp/mcu/all/bsp_common.o:(.text.__assert_func)
    3070     3070        0     1                 $t.2
    3071     3071        6     1                 __assert_func
    3078     3078       82     4         ./ra/fsp/src/bsp/mcu/all/bsp_delay.o:(.text.R_BSP_SoftwareDelay)
    3078     3078        0     1                 $t.0
    3079     3079       82     1                 R_BSP_SoftwareDelay
    30fc     30fc        8     4         ./ra/fsp/src/bsp/mcu/all/bsp_delay.o:(.text.bsp_prv_software_delay_loop)
    30fc     30fc        0     1                 sw_delay_loop
    30fc     30fc        0     1                 $t.1
    30fd     30fd        8     1                 bsp_prv_software_delay_loop
    3104     3104       52     4         ./ra/fsp/src/bsp/mcu/all/bsp_group_irq.o:(.text.NMI_Handler)
    3104     3104        0     1                 $t.1
    3105     3105       52     1                 NMI_Handler
    3158     3158       1a     4         ./ra/fsp/src/bsp/mcu/all/bsp_irq.o:(.text.bsp_irq_cfg)
    3158     3158        0     1                 $t.0
    3159     3159       1a     1                 bsp_irq_cfg
    3174     3174       58     4         ./ra/fsp/src/bsp/mcu/all/bsp_register_protection.o:(.text.R_BSP_RegisterProtectEnable)
    3174     3174        0     1                 $t.0
    3175     3175       58     1                 R_BSP_RegisterProtectEnable
    31cc     31cc       50     4         ./ra/fsp/src/bsp/mcu/all/bsp_register_protection.o:(.text.R_BSP_RegisterProtectDisable)
    31cc     31cc        0     1                 $t.1
    31cd     31cd       50     1                 R_BSP_RegisterProtectDisable
    321c     321c        e     4         ./ra/fsp/src/bsp/cmsis/Device/RENESAS/Source/startup.o:(.text.Reset_Handler)
    321c     321c        0     1                 $t.0
    321d     321d        e     1                 Reset_Handler
    322c     322c        4     4         ./ra/fsp/src/bsp/cmsis/Device/RENESAS/Source/startup.o:(.text.Default_Handler)
    322c     322c        0     1                 $t.1
    322d     322d        4     1                 Default_Handler
    322d     322d        4     1                 HardFault_Handler
    322d     322d        4     1                 MemManage_Handler
    322d     322d        4     1                 BusFault_Handler
    322d     322d        4     1                 UsageFault_Handler
    322d     322d        4     1                 SecureFault_Handler
    322d     322d        4     1                 DebugMon_Handler
    3230     3230      184     4         ./ra/fsp/src/bsp/cmsis/Device/RENESAS/Source/system.o:(.text.SystemInit)
    3230     3230        0     1                 $t.0
    3231     3231      184     1                 SystemInit
    33b4     33b4      244     4         ./ra/aws/FreeRTOS/FreeRTOS/Source/portable/MemMang/heap_4.o:(.text.pvPortMalloc)
    33b4     33b4        0     1                 $t.0
    33b5     33b5      244     1                 pvPortMalloc
    35f8     35f8      14e     4         ./ra/aws/FreeRTOS/FreeRTOS/Source/portable/MemMang/heap_4.o:(.text.vPortFree)
    35f8     35f8        0     1                 $t.1
    35f9     35f9      14e     1                 vPortFree
    3748     3748       24     4         ./ra/aws/FreeRTOS/FreeRTOS/Source/event_groups.o:(.text.xEventGroupCreate)
    3748     3748        0     1                 $t.1
    3749     3749       24     1                 xEventGroupCreate
    376c     376c       c4     4         ./ra/aws/FreeRTOS/FreeRTOS/Source/event_groups.o:(.text.xEventGroupSetBits)
    376c     376c        0     1                 $t.3
    376d     376d       c4     1                 xEventGroupSetBits
    3830     3830       7e     4         ./ra/aws/FreeRTOS/FreeRTOS/Source/event_groups.o:(.text.vEventGroupDelete)
    3830     3830        0     1                 $t.7
    3831     3831       7e     1                 vEventGroupDelete
    38b0     38b0       16     4         ./ra/aws/FreeRTOS/FreeRTOS/Source/list.o:(.text.vListInitialise)
    38b0     38b0        0     1                 $t.0
    38b1     38b1       16     1                 vListInitialise
    38c8     38c8        6     4         ./ra/aws/FreeRTOS/FreeRTOS/Source/list.o:(.text.vListInitialiseItem)
    38c8     38c8        0     1                 $t.1
    38c9     38c9        6     1                 vListInitialiseItem
    38d0     38d0       16     4         ./ra/aws/FreeRTOS/FreeRTOS/Source/list.o:(.text.vListInsertEnd)
    38d0     38d0        0     1                 $t.2
    38d1     38d1       16     1                 vListInsertEnd
    38e8     38e8       3e     4         ./ra/aws/FreeRTOS/FreeRTOS/Source/list.o:(.text.vListInsert)
    38e8     38e8        0     1                 $t.3
    38e9     38e9       3e     1                 vListInsert
    3928     3928       22     4         ./ra/aws/FreeRTOS/FreeRTOS/Source/list.o:(.text.uxListRemove)
    3928     3928        0     1                 $t.4
    3929     3929       22     1                 uxListRemove
    394c     394c       c8     4         ./ra/aws/FreeRTOS/FreeRTOS/Source/queue.o:(.text.xQueueGenericReset)
    394c     394c        0     1                 $t.0
    394d     394d       c8     1                 xQueueGenericReset
    3a14     3a14       a0     4         ./ra/aws/FreeRTOS/FreeRTOS/Source/queue.o:(.text.xQueueGenericCreateStatic)
    3a14     3a14        0     1                 $t.1
    3a15     3a15       a0     1                 xQueueGenericCreateStatic
    3ab4     3ab4       9c     4         ./ra/aws/FreeRTOS/FreeRTOS/Source/queue.o:(.text.xQueueCreateCountingSemaphoreStatic)
    3ab4     3ab4        0     1                 $t.4
    3ab5     3ab5       9c     1                 xQueueCreateCountingSemaphoreStatic
    3b50     3b50      222     4         ./ra/aws/FreeRTOS/FreeRTOS/Source/queue.o:(.text.xQueueGenericSend)
    3b50     3b50        0     1                 $t.6
    3b51     3b51      222     1                 xQueueGenericSend
    3d74     3d74       7e     4         ./ra/aws/FreeRTOS/FreeRTOS/Source/queue.o:(.text.prvUnlockQueue)
    3d74     3d74        0     1                 $t.7
    3d75     3d75       7e     1                 prvUnlockQueue
    3df4     3df4      1ba     4         ./ra/aws/FreeRTOS/FreeRTOS/Source/queue.o:(.text.xQueueReceive)
    3df4     3df4        0     1                 $t.10
    3df5     3df5      1ba     1                 xQueueReceive
    3fb0     3fb0      194     4         ./ra/aws/FreeRTOS/FreeRTOS/Source/queue.o:(.text.xQueueSemaphoreTake)
    3fb0     3fb0        0     1                 $t.11
    3fb1     3fb1      194     1                 xQueueSemaphoreTake
    4144     4144       36     4         ./ra/aws/FreeRTOS/FreeRTOS/Source/queue.o:(.text.uxQueueMessagesWaiting)
    4144     4144        0     1                 $t.15
    4145     4145       36     1                 uxQueueMessagesWaiting
    417c     417c       58     4         ./ra/aws/FreeRTOS/FreeRTOS/Source/queue.o:(.text.vQueueDelete)
    417c     417c        0     1                 $t.18
    417d     417d       58     1                 vQueueDelete
    41d4     41d4       72     4         ./ra/aws/FreeRTOS/FreeRTOS/Source/queue.o:(.text.vQueueAddToRegistry)
    41d4     41d4        0     1                 $t.24
    41d5     41d5       72     1                 vQueueAddToRegistry
    4248     4248       50     4         ./ra/aws/FreeRTOS/FreeRTOS/Source/queue.o:(.text.vQueueWaitForMessageRestricted)
    4248     4248        0     1                 $t.26
    4249     4249       50     1                 vQueueWaitForMessageRestricted
    4298     4298      12a     4         ./ra/aws/FreeRTOS/FreeRTOS/Source/tasks.o:(.text.xTaskCreateStatic)
    4298     4298        0     1                 $t.0
    4299     4299      12a     1                 xTaskCreateStatic
    43c4     43c4      148     4         ./ra/aws/FreeRTOS/FreeRTOS/Source/tasks.o:(.text.prvAddNewTaskToReadyList)
    43c4     43c4        0     1                 $t.1
    43c5     43c5      148     1                 prvAddNewTaskToReadyList
    450c     450c       d6     4         ./ra/aws/FreeRTOS/FreeRTOS/Source/tasks.o:(.text.xTaskCreate)
    450c     450c        0     1                 $t.2
    450d     450d       d6     1                 xTaskCreate
    45e4     45e4       10     4         ./ra/aws/FreeRTOS/FreeRTOS/Source/tasks.o:(.text.vTaskSuspendAll)
    45e4     45e4        0     1                 $t.5
    45e5     45e5       10     1                 vTaskSuspendAll
    45f4     45f4       b0     4         ./ra/aws/FreeRTOS/FreeRTOS/Source/tasks.o:(.text.prvAddCurrentTaskToDelayedList)
    45f4     45f4        0     1                 $t.6
    45f5     45f5       b0     1                 prvAddCurrentTaskToDelayedList
    46a4     46a4      19e     4         ./ra/aws/FreeRTOS/FreeRTOS/Source/tasks.o:(.text.xTaskResumeAll)
    46a4     46a4        0     1                 $t.7
    46a5     46a5      19e     1                 xTaskResumeAll
    4844     4844       c8     4         ./ra/aws/FreeRTOS/FreeRTOS/Source/tasks.o:(.text.vTaskDelay)
    4844     4844        0     1                 $t.8
    4845     4845       c8     1                 vTaskDelay
    490c     490c       ae     4         ./ra/aws/FreeRTOS/FreeRTOS/Source/tasks.o:(.text.vTaskSwitchContext)
    490c     490c        0     1                 $t.13
    490d     490d       ae     1                 vTaskSwitchContext
    49bc     49bc       b4     4         ./ra/aws/FreeRTOS/FreeRTOS/Source/tasks.o:(.text.vTaskStartScheduler)
    49bc     49bc        0     1                 $t.16
    49bd     49bd       b4     1                 vTaskStartScheduler
    4a70     4a70       8e     4         ./ra/aws/FreeRTOS/FreeRTOS/Source/tasks.o:(.text.prvCheckTasksWaitingTermination)
    4a70     4a70        0     1                 $t.18
    4a71     4a71       8e     1                 prvCheckTasksWaitingTermination
    4b00     4b00      1ba     4         ./ra/aws/FreeRTOS/FreeRTOS/Source/tasks.o:(.text.xTaskIncrementTick)
    4b00     4b00        0     1                 $t.19
    4b01     4b01      1ba     1                 xTaskIncrementTick
    4cbc     4cbc        c     4         ./ra/aws/FreeRTOS/FreeRTOS/Source/tasks.o:(.text.xTaskGetTickCount)
    4cbc     4cbc        0     1                 $t.20
    4cbd     4cbd        c     1                 xTaskGetTickCount
    4cc8     4cc8       44     4         ./ra/aws/FreeRTOS/FreeRTOS/Source/tasks.o:(.text.vTaskPlaceOnEventList)
    4cc8     4cc8        0     1                 $t.26
    4cc9     4cc9       44     1                 vTaskPlaceOnEventList
    4d0c     4d0c       7c     4         ./ra/aws/FreeRTOS/FreeRTOS/Source/tasks.o:(.text.vTaskPlaceOnEventListRestricted)
    4d0c     4d0c        0     1                 $t.28
    4d0d     4d0d       7c     1                 vTaskPlaceOnEventListRestricted
    4d88     4d88      102     4         ./ra/aws/FreeRTOS/FreeRTOS/Source/tasks.o:(.text.xTaskRemoveFromEventList)
    4d88     4d88        0     1                 $t.29
    4d89     4d89      102     1                 xTaskRemoveFromEventList
    4e8c     4e8c      112     4         ./ra/aws/FreeRTOS/FreeRTOS/Source/tasks.o:(.text.vTaskRemoveFromUnorderedEventList)
    4e8c     4e8c        0     1                 $t.30
    4e8d     4e8d      112     1                 vTaskRemoveFromUnorderedEventList
    4fa0     4fa0       4c     4         ./ra/aws/FreeRTOS/FreeRTOS/Source/tasks.o:(.text.vTaskSetTimeOutState)
    4fa0     4fa0        0     1                 $t.31
    4fa1     4fa1       4c     1                 vTaskSetTimeOutState
    4fec     4fec       1a     4         ./ra/aws/FreeRTOS/FreeRTOS/Source/tasks.o:(.text.vTaskInternalSetTimeOutState)
    4fec     4fec        0     1                 $t.32
    4fed     4fed       1a     1                 vTaskInternalSetTimeOutState
    5008     5008       aa     4         ./ra/aws/FreeRTOS/FreeRTOS/Source/tasks.o:(.text.xTaskCheckForTimeOut)
    5008     5008        0     1                 $t.33
    5009     5009       aa     1                 xTaskCheckForTimeOut
    50b4     50b4        e     4         ./ra/aws/FreeRTOS/FreeRTOS/Source/tasks.o:(.text.vTaskMissedYield)
    50b4     50b4        0     1                 $t.34
    50b5     50b5        e     1                 vTaskMissedYield
    50c4     50c4        c     4         ./ra/aws/FreeRTOS/FreeRTOS/Source/tasks.o:(.text.xTaskGetCurrentTaskHandle)
    50c4     50c4        0     1                 $t.37
    50c5     50c5        c     1                 xTaskGetCurrentTaskHandle
    50d0     50d0       26     4         ./ra/aws/FreeRTOS/FreeRTOS/Source/tasks.o:(.text.xTaskGetSchedulerState)
    50d0     50d0        0     1                 $t.39
    50d1     50d1       26     1                 xTaskGetSchedulerState
    50f8     50f8       ba     4         ./ra/aws/FreeRTOS/FreeRTOS/Source/tasks.o:(.text.ulTaskGenericNotifyTake)
    50f8     50f8        0     1                 $t.41
    50f9     50f9       ba     1                 ulTaskGenericNotifyTake
    51b4     51b4      160     4         ./ra/aws/FreeRTOS/FreeRTOS/Source/tasks.o:(.text.vTaskGenericNotifyGiveFromISR)
    51b4     51b4        0     1                 $t.49
    51b5     51b5      160     1                 vTaskGenericNotifyGiveFromISR
    5314     5314       32     4         ./ra/aws/FreeRTOS/FreeRTOS/Source/tasks.o:(.text.prvIdleTask)
    5314     5314        0     1                 $t.53
    5315     5315       32     1                 prvIdleTask
    5348     5348       82     4         ./ra/aws/FreeRTOS/FreeRTOS/Source/timers.o:(.text.xTimerCreateTimerTask)
    5348     5348        0     1                 $t.0
    5349     5349       82     1                 xTimerCreateTimerTask
    53cc     53cc       84     4         ./ra/aws/FreeRTOS/FreeRTOS/Source/timers.o:(.text.prvCheckForValidListAndQueue)
    53cc     53cc        0     1                 $t.1
    53cd     53cd       84     1                 prvCheckForValidListAndQueue
    5450     5450      262     4         ./ra/aws/FreeRTOS/FreeRTOS/Source/timers.o:(.text.prvTimerTask)
    5450     5450        0     1                 $t.2
    5451     5451      262     1                 prvTimerTask
    55a2     55a2        0     1                 $d.3
    55ac     55ac        0     1                 $t.4
    56b4     56b4       c4     4         ./ra/aws/FreeRTOS/FreeRTOS/Source/timers.o:(.text.prvSampleTimeNow)
    56b4     56b4        0     1                 $t.21
    56b5     56b5       c4     1                 prvSampleTimeNow
    5778     5778       b4     4         ./ra/aws/FreeRTOS/FreeRTOS-Plus/Source/FreeRTOS-Plus-TCP/source/portable/BufferManagement/BufferAllocation_2.o:(.text.xNetworkBuffersInitialise)
    5778     5778        0     1                 $t.0
    5779     5779       b4     1                 xNetworkBuffersInitialise
    582c     582c       ee     4         ./ra/aws/FreeRTOS/FreeRTOS-Plus/Source/FreeRTOS-Plus-TCP/source/portable/BufferManagement/BufferAllocation_2.o:(.text.pxGetNetworkBufferWithDescriptor)
    582c     582c        0     1                 $t.3
    582d     582d       ee     1                 pxGetNetworkBufferWithDescriptor
    591c     591c       5a     4         ./ra/aws/FreeRTOS/FreeRTOS-Plus/Source/FreeRTOS-Plus-TCP/source/portable/BufferManagement/BufferAllocation_2.o:(.text.vReleaseNetworkBufferAndDescriptor)
    591c     591c        0     1                 $t.4
    591d     591d       5a     1                 vReleaseNetworkBufferAndDescriptor
    5978     5978        c     4         ./ra/aws/FreeRTOS/FreeRTOS-Plus/Source/FreeRTOS-Plus-TCP/source/portable/BufferManagement/BufferAllocation_2.o:(.text.uxGetNumberOfFreeNetworkBuffers)
    5978     5978        0     1                 $t.5
    5979     5979        c     1                 uxGetNumberOfFreeNetworkBuffers
    5984     5984      222     4         ./ra/aws/FreeRTOS/FreeRTOS-Plus/Source/FreeRTOS-Plus-TCP/source/FreeRTOS_ARP.o:(.text.eARPProcessPacket)
    5984     5984        0     1                 $t.0
    5985     5985      222     1                 eARPProcessPacket
    5ba8     5ba8       f4     4         ./ra/aws/FreeRTOS/FreeRTOS-Plus/Source/FreeRTOS-Plus-TCP/source/FreeRTOS_ARP.o:(.text.FreeRTOS_OutputARPRequest_Multi)
    5ba8     5ba8        0     1                 $t.1
    5ba9     5ba9       f4     1                 FreeRTOS_OutputARPRequest_Multi
    5c9c     5c9c      17c     4         ./ra/aws/FreeRTOS/FreeRTOS-Plus/Source/FreeRTOS-Plus-TCP/source/FreeRTOS_ARP.o:(.text.eARPGetCacheEntry)
    5c9c     5c9c        0     1                 $t.2
    5c9d     5c9d      17c     1                 eARPGetCacheEntry
    5e18     5e18       fe     4         ./ra/aws/FreeRTOS/FreeRTOS-Plus/Source/FreeRTOS-Plus-TCP/source/FreeRTOS_ARP.o:(.text.vARPRefreshCacheEntry)
    5e18     5e18        0     1                 $t.3
    5e19     5e19       fe     1                 vARPRefreshCacheEntry
    5f18     5f18       b4     4         ./ra/aws/FreeRTOS/FreeRTOS-Plus/Source/FreeRTOS-Plus-TCP/source/FreeRTOS_ARP.o:(.text.vARPProcessPacketReply)
    5f18     5f18        0     1                 $t.4
    5f19     5f19       b4     1                 vARPProcessPacketReply
    5fcc     5fcc       88     4         ./ra/aws/FreeRTOS/FreeRTOS-Plus/Source/FreeRTOS-Plus-TCP/source/FreeRTOS_ARP.o:(.text.xCheckRequiresARPResolution)
    5fcc     5fcc        0     1                 $t.6
    5fcd     5fcd       88     1                 xCheckRequiresARPResolution
    6054     6054       4e     4         ./ra/aws/FreeRTOS/FreeRTOS-Plus/Source/FreeRTOS-Plus-TCP/source/FreeRTOS_ARP.o:(.text.vARPRefreshCacheEntryAge)
    6054     6054        0     1                 $t.7
    6055     6055       4e     1                 vARPRefreshCacheEntryAge
    60a4     60a4       aa     4         ./ra/aws/FreeRTOS/FreeRTOS-Plus/Source/FreeRTOS-Plus-TCP/source/FreeRTOS_ARP.o:(.text.vARPAgeCache)
    60a4     60a4        0     1                 $t.8
    60a5     60a5       aa     1                 vARPAgeCache
    6150     6150       1a     4         ./ra/aws/FreeRTOS/FreeRTOS-Plus/Source/FreeRTOS-Plus-TCP/source/FreeRTOS_ARP.o:(.text.FreeRTOS_OutputARPRequest)
    6150     6150        0     1                 $t.9
    6151     6151       1a     1                 FreeRTOS_OutputARPRequest
    616c     616c       d2     4         ./ra/aws/FreeRTOS/FreeRTOS-Plus/Source/FreeRTOS-Plus-TCP/source/FreeRTOS_ARP.o:(.text.vARPGenerateRequestPacket)
    616c     616c        0     1                 $t.11
    616d     616d       d2     1                 vARPGenerateRequestPacket
    6240     6240       48     4         ./ra/aws/FreeRTOS/FreeRTOS-Plus/Source/FreeRTOS-Plus-TCP/source/FreeRTOS_ARP.o:(.text.FreeRTOS_ClearARP)
    6240     6240        0     1                 $t.13
    6241     6241       48     1                 FreeRTOS_ClearARP
    6288     6288       16     4         ./ra/aws/FreeRTOS/FreeRTOS-Plus/Source/FreeRTOS-Plus-TCP/source/FreeRTOS_DNS_Cache.o:(.text.FreeRTOS_dnsclear)
    6288     6288        0     1                 $t.3
    6289     6289       16     1                 FreeRTOS_dnsclear
    62a0     62a0      114     4         ./ra/aws/FreeRTOS/FreeRTOS-Plus/Source/FreeRTOS-Plus-TCP/source/FreeRTOS_ICMP.o:(.text.ProcessICMPPacket)
    62a0     62a0        0     1                 $t.0
    62a1     62a1      114     1                 ProcessICMPPacket
    63b4     63b4        c     4         ./ra/aws/FreeRTOS/FreeRTOS-Plus/Source/FreeRTOS-Plus-TCP/source/FreeRTOS_IP.o:(.text.FreeRTOS_GetIPTaskHandle)
    63b4     63b4        0     1                 $t.0
    63b5     63b5        c     1                 FreeRTOS_GetIPTaskHandle
    63c0     63c0       1a     4         ./ra/aws/FreeRTOS/FreeRTOS-Plus/Source/FreeRTOS-Plus-TCP/source/FreeRTOS_IP.o:(.text.vIPNetworkUpCalls)
    63c0     63c0        0     1                 $t.1
    63c1     63c1       1a     1                 vIPNetworkUpCalls
    63dc     63dc       52     4         ./ra/aws/FreeRTOS/FreeRTOS-Plus/Source/FreeRTOS-Plus-TCP/source/FreeRTOS_IP.o:(.text.FreeRTOS_NetworkDown)
    63dc     63dc        0     1                 $t.2
    63dd     63dd       52     1                 FreeRTOS_NetworkDown
    6430     6430       68     4         ./ra/aws/FreeRTOS/FreeRTOS-Plus/Source/FreeRTOS-Plus-TCP/source/FreeRTOS_IP.o:(.text.xSendEventStructToIPTask)
    6430     6430        0     1                 $t.3
    6431     6431       68     1                 xSendEventStructToIPTask
    6498     6498       4e     4         ./ra/aws/FreeRTOS/FreeRTOS-Plus/Source/FreeRTOS-Plus-TCP/source/FreeRTOS_IP.o:(.text.FreeRTOS_IPInit)
    6498     6498        0     1                 $t.7
    6499     6499       4e     1                 FreeRTOS_IPInit
    64e8     64e8       c6     4         ./ra/aws/FreeRTOS/FreeRTOS-Plus/Source/FreeRTOS-Plus-TCP/source/FreeRTOS_IP.o:(.text.FreeRTOS_IPInit_Multi)
    64e8     64e8        0     1                 $t.8
    64e9     64e9       c6     1                 FreeRTOS_IPInit_Multi
    65b0     65b0      3e0     4         ./ra/aws/FreeRTOS/FreeRTOS-Plus/Source/FreeRTOS-Plus-TCP/source/FreeRTOS_IP.o:(.text.prvIPTask)
    65b0     65b0        0     1                 $t.9
    65b1     65b1      3e0     1                 prvIPTask
    6666     6666        0     1                 $d.10
    6672     6672        0     1                 $t.11
    6990     6990      112     4         ./ra/aws/FreeRTOS/FreeRTOS-Plus/Source/FreeRTOS-Plus-TCP/source/FreeRTOS_IP.o:(.text.FreeRTOS_SendPingRequest)
    6990     6990        0     1                 $t.18
    6991     6991      112     1                 FreeRTOS_SendPingRequest
    6aa4     6aa4       64     4         ./ra/aws/FreeRTOS/FreeRTOS-Plus/Source/FreeRTOS-Plus-TCP/source/FreeRTOS_IP.o:(.text.xSendEventToIPTask)
    6aa4     6aa4        0     1                 $t.19
    6aa5     6aa5       64     1                 xSendEventToIPTask
    6b08     6b08        c     4         ./ra/aws/FreeRTOS/FreeRTOS-Plus/Source/FreeRTOS-Plus-TCP/source/FreeRTOS_IP.o:(.text.xIPIsNetworkTaskReady)
    6b08     6b08        0     1                 $t.20
    6b09     6b09        c     1                 xIPIsNetworkTaskReady
    6b14     6b14       ac     4         ./ra/aws/FreeRTOS/FreeRTOS-Plus/Source/FreeRTOS-Plus-TCP/source/FreeRTOS_IP.o:(.text.eConsiderFrameForProcessing)
    6b14     6b14        0     1                 $t.21
    6b15     6b15       ac     1                 eConsiderFrameForProcessing
    6bc0     6bc0      12c     4         ./ra/aws/FreeRTOS/FreeRTOS-Plus/Source/FreeRTOS-Plus-TCP/source/FreeRTOS_IP.o:(.text.vReturnEthernetFrame)
    6bc0     6bc0        0     1                 $t.22
    6bc1     6bc1      12c     1                 vReturnEthernetFrame
    6cec     6cec       20     4         ./ra/aws/FreeRTOS/FreeRTOS-Plus/Source/FreeRTOS-Plus-TCP/source/FreeRTOS_IP.o:(.text.FreeRTOS_UpdateMACAddress)
    6cec     6cec        0     1                 $t.28
    6ced     6ced       20     1                 FreeRTOS_UpdateMACAddress
    6d0c     6d0c       24     4         ./ra/aws/FreeRTOS/FreeRTOS-Plus/Source/FreeRTOS-Plus-TCP/source/FreeRTOS_IP.o:(.text.FreeRTOS_IsNetworkUp)
    6d0c     6d0c        0     1                 $t.32
    6d0d     6d0d       24     1                 FreeRTOS_IsNetworkUp
    6d30     6d30       18     4         ./ra/aws/FreeRTOS/FreeRTOS-Plus/Source/FreeRTOS-Plus-TCP/source/FreeRTOS_IP.o:(.text.uxIPHeaderSizePacket)
    6d30     6d30        0     1                 $t.36
    6d31     6d31       18     1                 uxIPHeaderSizePacket
    6d48     6d48       14     4         ./ra/aws/FreeRTOS/FreeRTOS-Plus/Source/FreeRTOS-Plus-TCP/source/FreeRTOS_IP.o:(.text.uxIPHeaderSizeSocket)
    6d48     6d48        0     1                 $t.37
    6d49     6d49       14     1                 uxIPHeaderSizeSocket
    6d5c     6d5c       5c     4         ./ra/aws/FreeRTOS/FreeRTOS-Plus/Source/FreeRTOS-Plus-TCP/source/FreeRTOS_IP_Timers.o:(.text.xCalculateSleepTime)
    6d5c     6d5c        0     1                 $t.0
    6d5d     6d5d       5c     1                 xCalculateSleepTime
    6db8     6db8      232     4         ./ra/aws/FreeRTOS/FreeRTOS-Plus/Source/FreeRTOS-Plus-TCP/source/FreeRTOS_IP_Timers.o:(.text.vCheckNetworkTimers)
    6db8     6db8        0     1                 $t.1
    6db9     6db9      232     1                 vCheckNetworkTimers
    6fec     6fec       1a     4         ./ra/aws/FreeRTOS/FreeRTOS-Plus/Source/FreeRTOS-Plus-TCP/source/FreeRTOS_IP_Timers.o:(.text.vIPSetARPResolutionTimerEnableState)
    6fec     6fec        0     1                 $t.2
    6fed     6fed       1a     1                 vIPSetARPResolutionTimerEnableState
    7008     7008        c     4         ./ra/aws/FreeRTOS/FreeRTOS-Plus/Source/FreeRTOS-Plus-TCP/source/FreeRTOS_IP_Timers.o:(.text.vSetAllNetworksUp)
    7008     7008        0     1                 $t.3
    7009     7009        c     1                 vSetAllNetworksUp
    7014     7014       2a     4         ./ra/aws/FreeRTOS/FreeRTOS-Plus/Source/FreeRTOS-Plus-TCP/source/FreeRTOS_IP_Timers.o:(.text.vIPTimerStartARPResolution)
    7014     7014        0     1                 $t.4
    7015     7015       2a     1                 vIPTimerStartARPResolution
    7040     7040       2c     4         ./ra/aws/FreeRTOS/FreeRTOS-Plus/Source/FreeRTOS-Plus-TCP/source/FreeRTOS_IP_Timers.o:(.text.vTCPTimerReload)
    7040     7040        0     1                 $t.5
    7041     7041       2c     1                 vTCPTimerReload
    706c     706c       2c     4         ./ra/aws/FreeRTOS/FreeRTOS-Plus/Source/FreeRTOS-Plus-TCP/source/FreeRTOS_IP_Timers.o:(.text.vARPTimerReload)
    706c     706c        0     1                 $t.6
    706d     706d       2c     1                 vARPTimerReload
    7098     7098       2c     4         ./ra/aws/FreeRTOS/FreeRTOS-Plus/Source/FreeRTOS-Plus-TCP/source/FreeRTOS_IP_Timers.o:(.text.vNetworkTimerReload)
    7098     7098        0     1                 $t.8
    7099     7099       2c     1                 vNetworkTimerReload
    70c4     70c4       1c     4         ./ra/aws/FreeRTOS/FreeRTOS-Plus/Source/FreeRTOS-Plus-TCP/source/FreeRTOS_IP_Timers.o:(.text.vIPSetTCPTimerExpiredState)
    70c4     70c4        0     1                 $t.9
    70c5     70c5       1c     1                 vIPSetTCPTimerExpiredState
    70e0     70e0       1a     4         ./ra/aws/FreeRTOS/FreeRTOS-Plus/Source/FreeRTOS-Plus-TCP/source/FreeRTOS_IP_Timers.o:(.text.vIPSetARPTimerEnableState)
    70e0     70e0        0     1                 $t.10
    70e1     70e1       1a     1                 vIPSetARPTimerEnableState
    70fc     70fc       18     4         ./ra/aws/FreeRTOS/FreeRTOS-Plus/Source/FreeRTOS-Plus-TCP/source/FreeRTOS_IP_Utils.o:(.text.xIsCallingFromIPTask)
    70fc     70fc        0     1                 $t.3
    70fd     70fd       18     1                 xIsCallingFromIPTask
    7114     7114       e8     4         ./ra/aws/FreeRTOS/FreeRTOS-Plus/Source/FreeRTOS-Plus-TCP/source/FreeRTOS_IP_Utils.o:(.text.prvProcessNetworkDownEvent)
    7114     7114        0     1                 $t.4
    7115     7115       e8     1                 prvProcessNetworkDownEvent
    71fc     71fc       80     4         ./ra/aws/FreeRTOS/FreeRTOS-Plus/Source/FreeRTOS-Plus-TCP/source/FreeRTOS_IP_Utils.o:(.text.vPreCheckConfigs)
    71fc     71fc        0     1                 $t.5
    71fd     71fd       80     1                 vPreCheckConfigs
    727c     727c      1d8     4         ./ra/aws/FreeRTOS/FreeRTOS-Plus/Source/FreeRTOS-Plus-TCP/source/FreeRTOS_IP_Utils.o:(.text.usGenerateProtocolChecksum)
    727c     727c        0     1                 $t.6
    727d     727d      1d8     1                 usGenerateProtocolChecksum
    7454     7454       ee     4         ./ra/aws/FreeRTOS/FreeRTOS-Plus/Source/FreeRTOS-Plus-TCP/source/FreeRTOS_IP_Utils.o:(.text.usGenerateChecksum)
    7454     7454        0     1                 $t.7
    7455     7455       ee     1                 usGenerateChecksum
    7544     7544        8     4         ./ra/aws/FreeRTOS/FreeRTOS-Plus/Source/FreeRTOS-Plus-TCP/source/FreeRTOS_IP_Utils.o:(.text.FreeRTOS_min_int32)
    7544     7544        0     1                 $t.11
    7545     7545        8     1                 FreeRTOS_min_int32
    754c     754c        8     4         ./ra/aws/FreeRTOS/FreeRTOS-Plus/Source/FreeRTOS-Plus-TCP/source/FreeRTOS_IP_Utils.o:(.text.FreeRTOS_min_uint32)
    754c     754c        0     1                 $t.12
    754d     754d        8     1                 FreeRTOS_min_uint32
    7554     7554        8     4         ./ra/aws/FreeRTOS/FreeRTOS-Plus/Source/FreeRTOS-Plus-TCP/source/FreeRTOS_IP_Utils.o:(.text.FreeRTOS_min_size_t)
    7554     7554        0     1                 $t.13
    7555     7555        8     1                 FreeRTOS_min_size_t
    755c     755c       36     4         ./ra/aws/FreeRTOS/FreeRTOS-Plus/Source/FreeRTOS-Plus-TCP/source/FreeRTOS_IP_Utils.o:(.text.FreeRTOS_round_up)
    755c     755c        0     1                 $t.16
    755d     755d       36     1                 FreeRTOS_round_up
    7594     7594        c     4         ./ra/aws/FreeRTOS/FreeRTOS-Plus/Source/FreeRTOS-Plus-TCP/source/FreeRTOS_IP_Utils.o:(.text.usChar2u16)
    7594     7594        0     1                 $t.19
    7595     7595        c     1                 usChar2u16
    75a0     75a0        e     4         ./ra/aws/FreeRTOS/FreeRTOS-Plus/Source/FreeRTOS-Plus-TCP/source/FreeRTOS_IPv4.o:(.text.xIsIPv4Multicast)
    75a0     75a0        0     1                 $t.0
    75a1     75a1        e     1                 xIsIPv4Multicast
    75b0     75b0        e     4         ./ra/aws/FreeRTOS/FreeRTOS-Plus/Source/FreeRTOS-Plus-TCP/source/FreeRTOS_IPv4.o:(.text.xIsIPv4Loopback)
    75b0     75b0        0     1                 $t.2
    75b1     75b1        e     1                 xIsIPv4Loopback
    75c0     75c0      1a6     4         ./ra/aws/FreeRTOS/FreeRTOS-Plus/Source/FreeRTOS-Plus-TCP/source/FreeRTOS_IPv4.o:(.text.prvAllowIPPacketIPv4)
    75c0     75c0        0     1                 $t.3
    75c1     75c1      1a6     1                 prvAllowIPPacketIPv4
    7768     7768       62     4         ./ra/aws/FreeRTOS/FreeRTOS-Plus/Source/FreeRTOS-Plus-TCP/source/FreeRTOS_IPv4.o:(.text.prvCheckIP4HeaderOptions)
    7768     7768        0     1                 $t.4
    7769     7769       62     1                 prvCheckIP4HeaderOptions
    77cc     77cc       b6     4         ./ra/aws/FreeRTOS/FreeRTOS-Plus/Source/FreeRTOS-Plus-TCP/source/FreeRTOS_IPv4_Sockets.o:(.text.FreeRTOS_inet_pton4)
    77cc     77cc        0     1                 $t.0
    77cd     77cd       b6     1                 FreeRTOS_inet_pton4
    7884     7884       1c     4         ./ra/aws/FreeRTOS/FreeRTOS-Plus/Source/FreeRTOS-Plus-TCP/source/FreeRTOS_IPv4_Utils.o:(.text.vSetMultiCastIPv4MacAddress)
    7884     7884        0     1                 $t.0
    7885     7885       1c     1                 vSetMultiCastIPv4MacAddress
    78a0     78a0       a6     4         ./ra/aws/FreeRTOS/FreeRTOS-Plus/Source/FreeRTOS-Plus-TCP/source/FreeRTOS_IPv4_Utils.o:(.text.prvChecksumIPv4Checks)
    78a0     78a0        0     1                 $t.1
    78a1     78a1       a6     1                 prvChecksumIPv4Checks
    7948     7948       fc     4         ./ra/aws/FreeRTOS/FreeRTOS-Plus/Source/FreeRTOS-Plus-TCP/source/FreeRTOS_Routing.o:(.text.FreeRTOS_FillEndPoint)
    7948     7948        0     1                 $t.0
    7949     7949       fc     1                 FreeRTOS_FillEndPoint
    7a44     7a44       28     4         ./ra/aws/FreeRTOS/FreeRTOS-Plus/Source/FreeRTOS-Plus-TCP/source/FreeRTOS_Routing.o:(.text.FreeRTOS_AddNetworkInterface)
    7a44     7a44        0     1                 $t.1
    7a45     7a45       28     1                 FreeRTOS_AddNetworkInterface
    7a6c     7a6c        c     4         ./ra/aws/FreeRTOS/FreeRTOS-Plus/Source/FreeRTOS-Plus-TCP/source/FreeRTOS_Routing.o:(.text.FreeRTOS_FirstNetworkInterface)
    7a6c     7a6c        0     1                 $t.2
    7a6d     7a6d        c     1                 FreeRTOS_FirstNetworkInterface
    7a78     7a78        a     4         ./ra/aws/FreeRTOS/FreeRTOS-Plus/Source/FreeRTOS-Plus-TCP/source/FreeRTOS_Routing.o:(.text.FreeRTOS_NextNetworkInterface)
    7a78     7a78        0     1                 $t.3
    7a79     7a79        a     1                 FreeRTOS_NextNetworkInterface
    7a84     7a84       2a     4         ./ra/aws/FreeRTOS/FreeRTOS-Plus/Source/FreeRTOS-Plus-TCP/source/FreeRTOS_Routing.o:(.text.FreeRTOS_FirstEndPoint)
    7a84     7a84        0     1                 $t.4
    7a85     7a85       2a     1                 FreeRTOS_FirstEndPoint
    7ab0     7ab0       3e     4         ./ra/aws/FreeRTOS/FreeRTOS-Plus/Source/FreeRTOS-Plus-TCP/source/FreeRTOS_Routing.o:(.text.FreeRTOS_NextEndPoint)
    7ab0     7ab0        0     1                 $t.5
    7ab1     7ab1       3e     1                 FreeRTOS_NextEndPoint
    7af0     7af0       2a     4         ./ra/aws/FreeRTOS/FreeRTOS-Plus/Source/FreeRTOS-Plus-TCP/source/FreeRTOS_Routing.o:(.text.FreeRTOS_FindEndPointOnIP_IPv4)
    7af0     7af0        0     1                 $t.6
    7af1     7af1       2a     1                 FreeRTOS_FindEndPointOnIP_IPv4
    7b1c     7b1c       56     4         ./ra/aws/FreeRTOS/FreeRTOS-Plus/Source/FreeRTOS-Plus-TCP/source/FreeRTOS_Routing.o:(.text.FreeRTOS_FindEndPointOnMAC)
    7b1c     7b1c        0     1                 $t.7
    7b1d     7b1d       56     1                 FreeRTOS_FindEndPointOnMAC
    7b74     7b74       46     4         ./ra/aws/FreeRTOS/FreeRTOS-Plus/Source/FreeRTOS-Plus-TCP/source/FreeRTOS_Routing.o:(.text.FreeRTOS_FindEndPointOnNetMask)
    7b74     7b74        0     1                 $t.8
    7b75     7b75       46     1                 FreeRTOS_FindEndPointOnNetMask
    7bbc     7bbc       e4     4         ./ra/aws/FreeRTOS/FreeRTOS-Plus/Source/FreeRTOS-Plus-TCP/source/FreeRTOS_Routing.o:(.text.pxEasyFit)
    7bbc     7bbc        0     1                 $t.10
    7bbd     7bbd       e4     1                 pxEasyFit
    7ca0     7ca0       f0     4         ./ra/aws/FreeRTOS/FreeRTOS-Plus/Source/FreeRTOS-Plus-TCP/source/FreeRTOS_Routing.o:(.text.FreeRTOS_MatchingEndpoint)
    7ca0     7ca0        0     1                 $t.11
    7ca1     7ca1       f0     1                 FreeRTOS_MatchingEndpoint
    7d90     7d90       1e     4         ./ra/aws/FreeRTOS/FreeRTOS-Plus/Source/FreeRTOS-Plus-TCP/source/FreeRTOS_Routing.o:(.text.FreeRTOS_FindGateWay)
    7d90     7d90        0     1                 $t.12
    7d91     7d91       1e     1                 FreeRTOS_FindGateWay
    7db0     7db0       1c     4         ./ra/aws/FreeRTOS/FreeRTOS-Plus/Source/FreeRTOS-Plus-TCP/source/FreeRTOS_Routing.o:(.text.xCheckRequiresResolution)
    7db0     7db0        0     1                 $t.15
    7db1     7db1       1c     1                 xCheckRequiresResolution
    7dcc     7dcc       20     4         ./ra/aws/FreeRTOS/FreeRTOS-Plus/Source/FreeRTOS-Plus-TCP/source/FreeRTOS_Sockets.o:(.text.vNetworkSocketsInit)
    7dcc     7dcc        0     1                 $t.0
    7dcd     7dcd       20     1                 vNetworkSocketsInit
    7dec     7dec      1de     4         ./ra/aws/FreeRTOS/FreeRTOS-Plus/Source/FreeRTOS-Plus-TCP/source/FreeRTOS_Sockets.o:(.text.FreeRTOS_socket)
    7dec     7dec        0     1                 $t.1
    7ded     7ded      1de     1                 FreeRTOS_socket
    7fcc     7fcc      1d4     4         ./ra/aws/FreeRTOS/FreeRTOS-Plus/Source/FreeRTOS-Plus-TCP/source/FreeRTOS_Sockets.o:(.text.vSocketBind)
    7fcc     7fcc        0     1                 $t.6
    7fcd     7fcd      1d4     1                 vSocketBind
    81a0     81a0       d6     4         ./ra/aws/FreeRTOS/FreeRTOS-Plus/Source/FreeRTOS-Plus-TCP/source/FreeRTOS_Sockets.o:(.text.vSocketClose)
    81a0     81a0        0     1                 $t.8
    81a1     81a1       d6     1                 vSocketClose
    8278     8278       5a     4         ./ra/aws/FreeRTOS/FreeRTOS-Plus/Source/FreeRTOS-Plus-TCP/source/FreeRTOS_Sockets.o:(.text.pxUDPSocketLookup)
    8278     8278        0     1                 $t.12
    8279     8279       5a     1                 pxUDPSocketLookup
    82d4     82d4       1c     4         ./ra/aws/FreeRTOS/FreeRTOS-Plus/Source/FreeRTOS-Plus-TCP/source/FreeRTOS_Sockets.o:(.text.FreeRTOS_inet_addr)
    82d4     82d4        0     1                 $t.19
    82d5     82d5       1c     1                 FreeRTOS_inet_addr
    82f0     82f0       1e     4         ./ra/aws/FreeRTOS/FreeRTOS-Plus/Source/FreeRTOS-Plus-TCP/source/FreeRTOS_Sockets.o:(.text.FreeRTOS_GetLocalAddress)
    82f0     82f0        0     1                 $t.20
    82f1     82f1       1e     1                 FreeRTOS_GetLocalAddress
    8310     8310       22     4         ./ra/aws/FreeRTOS/FreeRTOS-Plus/Source/FreeRTOS-Plus-TCP/source/FreeRTOS_Sockets.o:(.text.vSocketWakeUpUser)
    8310     8310        0     1                 $t.21
    8311     8311       22     1                 vSocketWakeUpUser
    8334     8334       82     4         ./ra/aws/FreeRTOS/FreeRTOS-Plus/Source/FreeRTOS-Plus-TCP/source/FreeRTOS_Sockets.o:(.text.FreeRTOS_listen)
    8334     8334        0     1                 $t.30
    8335     8335       82     1                 FreeRTOS_listen
    83b8     83b8       be     4         ./ra/aws/FreeRTOS/FreeRTOS-Plus/Source/FreeRTOS-Plus-TCP/source/FreeRTOS_Sockets.o:(.text.xTCPTimerCheck)
    83b8     83b8        0     1                 $t.32
    83b9     83b9       be     1                 xTCPTimerCheck
    8478     8478       66     4         ./ra/aws/FreeRTOS/FreeRTOS-Plus/Source/FreeRTOS-Plus-TCP/source/FreeRTOS_Sockets.o:(.text.pxTCPSocketLookup)
    8478     8478        0     1                 $t.33
    8479     8479       66     1                 pxTCPSocketLookup
    84e0     84e0      110     4         ./ra/aws/FreeRTOS/FreeRTOS-Plus/Source/FreeRTOS-Plus-TCP/source/FreeRTOS_Sockets.o:(.text.lTCPAddRxdata)
    84e0     84e0        0     1                 $t.35
    84e1     84e1      110     1                 lTCPAddRxdata
    85f0     85f0        c     4         ./ra/aws/FreeRTOS/FreeRTOS-Plus/Source/FreeRTOS-Plus-TCP/source/FreeRTOS_Stream_Buffer.o:(.text.uxStreamBufferDistance)
    85f0     85f0        0     1                 $t.1
    85f1     85f1        c     1                 uxStreamBufferDistance
    85fc     85fc       12     4         ./ra/aws/FreeRTOS/FreeRTOS-Plus/Source/FreeRTOS-Plus-TCP/source/FreeRTOS_Stream_Buffer.o:(.text.uxStreamBufferGetSpace)
    85fc     85fc        0     1                 $t.2
    85fd     85fd       12     1                 uxStreamBufferGetSpace
    8610     8610       12     4         ./ra/aws/FreeRTOS/FreeRTOS-Plus/Source/FreeRTOS-Plus-TCP/source/FreeRTOS_Stream_Buffer.o:(.text.uxStreamBufferFrontSpace)
    8610     8610        0     1                 $t.3
    8611     8611       12     1                 uxStreamBufferFrontSpace
    8624     8624       10     4         ./ra/aws/FreeRTOS/FreeRTOS-Plus/Source/FreeRTOS-Plus-TCP/source/FreeRTOS_Stream_Buffer.o:(.text.uxStreamBufferMidSpace)
    8624     8624        0     1                 $t.5
    8625     8625       10     1                 uxStreamBufferMidSpace
    8634     8634        c     4         ./ra/aws/FreeRTOS/FreeRTOS-Plus/Source/FreeRTOS-Plus-TCP/source/FreeRTOS_Stream_Buffer.o:(.text.vStreamBufferClear)
    8634     8634        0     1                 $t.6
    8635     8635        c     1                 vStreamBufferClear
    8640     8640       30     4         ./ra/aws/FreeRTOS/FreeRTOS-Plus/Source/FreeRTOS-Plus-TCP/source/FreeRTOS_Stream_Buffer.o:(.text.vStreamBufferMoveMid)
    8640     8640        0     1                 $t.7
    8641     8641       30     1                 vStreamBufferMoveMid
    8670     8670       c4     4         ./ra/aws/FreeRTOS/FreeRTOS-Plus/Source/FreeRTOS-Plus-TCP/source/FreeRTOS_Stream_Buffer.o:(.text.uxStreamBufferAdd)
    8670     8670        0     1                 $t.10
    8671     8671       c4     1                 uxStreamBufferAdd
    8734     8734       9e     4         ./ra/aws/FreeRTOS/FreeRTOS-Plus/Source/FreeRTOS-Plus-TCP/source/FreeRTOS_Stream_Buffer.o:(.text.uxStreamBufferGet)
    8734     8734        0     1                 $t.11
    8735     8735       9e     1                 uxStreamBufferGet
    87d4     87d4       26     4         ./ra/aws/FreeRTOS/FreeRTOS-Plus/Source/FreeRTOS-Plus-TCP/source/FreeRTOS_TCP_IP.o:(.text.vSocketCloseNextTime)
    87d4     87d4        0     1                 $t.0
    87d5     87d5       26     1                 vSocketCloseNextTime
    87fc     87fc       2a     4         ./ra/aws/FreeRTOS/FreeRTOS-Plus/Source/FreeRTOS-Plus-TCP/source/FreeRTOS_TCP_IP.o:(.text.vSocketListenNextTime)
    87fc     87fc        0     1                 $t.1
    87fd     87fd       2a     1                 vSocketListenNextTime
    8828     8828       a8     4         ./ra/aws/FreeRTOS/FreeRTOS-Plus/Source/FreeRTOS-Plus-TCP/source/FreeRTOS_TCP_IP.o:(.text.xTCPSocketCheck)
    8828     8828        0     1                 $t.2
    8829     8829       a8     1                 xTCPSocketCheck
    88d0     88d0      216     4         ./ra/aws/FreeRTOS/FreeRTOS-Plus/Source/FreeRTOS-Plus-TCP/source/FreeRTOS_TCP_IP.o:(.text.vTCPStateChange)
    88d0     88d0        0     1                 $t.5
    88d1     88d1      216     1                 vTCPStateChange
    8ae8     8ae8      33a     4         ./ra/aws/FreeRTOS/FreeRTOS-Plus/Source/FreeRTOS-Plus-TCP/source/FreeRTOS_TCP_IP.o:(.text.xProcessReceivedTCPPacket)
    8ae8     8ae8        0     1                 $t.6
    8ae9     8ae9      33a     1                 xProcessReceivedTCPPacket
    8e24     8e24       4c     4         ./ra/aws/FreeRTOS/FreeRTOS-Plus/Source/FreeRTOS-Plus-TCP/source/FreeRTOS_TCP_IP.o:(.text.xTCPCheckNewClient)
    8e24     8e24        0     1                 $t.7
    8e25     8e25       4c     1                 xTCPCheckNewClient
    8e70     8e70       ce     4         ./ra/aws/FreeRTOS/FreeRTOS-Plus/Source/FreeRTOS-Plus-TCP/source/FreeRTOS_TCP_Reception.o:(.text.prvCheckOptions)
    8e70     8e70        0     1                 $t.0
    8e71     8e71       ce     1                 prvCheckOptions
    8f40     8f40       98     4         ./ra/aws/FreeRTOS/FreeRTOS-Plus/Source/FreeRTOS-Plus-TCP/source/FreeRTOS_TCP_Reception.o:(.text.prvCheckRxData)
    8f40     8f40        0     1                 $t.1
    8f41     8f41       98     1                 prvCheckRxData
    8fd8     8fd8       a4     4         ./ra/aws/FreeRTOS/FreeRTOS-Plus/Source/FreeRTOS-Plus-TCP/source/FreeRTOS_TCP_Reception.o:(.text.prvStoreRxData)
    8fd8     8fd8        0     1                 $t.2
    8fd9     8fd9       a4     1                 prvStoreRxData
    907c     907c       14     4         ./ra/aws/FreeRTOS/FreeRTOS-Plus/Source/FreeRTOS-Plus-TCP/source/FreeRTOS_TCP_State_Handling.o:(.text.prvTCPSocketIsActive)
    907c     907c        0     1                 $t.0
    907d     907d       14     1                 prvTCPSocketIsActive
    9090     9090       4a     4         ./ra/aws/FreeRTOS/FreeRTOS-Plus/Source/FreeRTOS-Plus-TCP/source/FreeRTOS_TCP_State_Handling.o:(.text.prvTCPStatusAgeCheck)
    9090     9090        0     1                 $t.1
    9091     9091       4a     1                 prvTCPStatusAgeCheck
    90dc     90dc      402     4         ./ra/aws/FreeRTOS/FreeRTOS-Plus/Source/FreeRTOS-Plus-TCP/source/FreeRTOS_TCP_State_Handling.o:(.text.prvTCPHandleState)
    90dc     90dc        0     1                 $t.2
    90dd     90dd      402     1                 prvTCPHandleState
    91b8     91b8        0     1                 $d.3
    91ca     91ca        0     1                 $t.4
    94e0     94e0       c2     4         ./ra/aws/FreeRTOS/FreeRTOS-Plus/Source/FreeRTOS-Plus-TCP/source/FreeRTOS_TCP_State_Handling.o:(.text.prvTCPHandleFin)
    94e0     94e0        0     1                 $t.5
    94e1     94e1       c2     1                 prvTCPHandleFin
    95a4     95a4       22     4         ./ra/aws/FreeRTOS/FreeRTOS-Plus/Source/FreeRTOS-Plus-TCP/source/FreeRTOS_TCP_State_Handling.o:(.text.prvHandleListen)
    95a4     95a4        0     1                 $t.6
    95a5     95a5       22     1                 prvHandleListen
    95c8     95c8       92     4         ./ra/aws/FreeRTOS/FreeRTOS-Plus/Source/FreeRTOS-Plus-TCP/source/FreeRTOS_TCP_State_Handling.o:(.text.prvTCPSocketCopy)
    95c8     95c8        0     1                 $t.7
    95c9     95c9       92     1                 prvTCPSocketCopy
    965c     965c      17a     4         ./ra/aws/FreeRTOS/FreeRTOS-Plus/Source/FreeRTOS-Plus-TCP/source/FreeRTOS_TCP_State_Handling_IPv4.o:(.text.prvHandleListen_IPV4)
    965c     965c        0     1                 $t.0
    965d     965d      17a     1                 prvHandleListen_IPV4
    97d8     97d8       da     4         ./ra/aws/FreeRTOS/FreeRTOS-Plus/Source/FreeRTOS-Plus-TCP/source/FreeRTOS_TCP_Transmission.o:(.text.prvTCPSendPacket)
    97d8     97d8        0     1                 $t.0
    97d9     97d9       da     1                 prvTCPSendPacket
    98b4     98b4       16     4         ./ra/aws/FreeRTOS/FreeRTOS-Plus/Source/FreeRTOS-Plus-TCP/source/FreeRTOS_TCP_Transmission.o:(.text.prvSetSynAckOptions)
    98b4     98b4        0     1                 $t.2
    98b5     98b5       16     1                 prvSetSynAckOptions
    98cc     98cc       2e     4         ./ra/aws/FreeRTOS/FreeRTOS-Plus/Source/FreeRTOS-Plus-TCP/source/FreeRTOS_TCP_Transmission.o:(.text.prvTCPReturnPacket)
    98cc     98cc        0     1                 $t.3
    98cd     98cd       2e     1                 prvTCPReturnPacket
    98fc     98fc      1f0     4         ./ra/aws/FreeRTOS/FreeRTOS-Plus/Source/FreeRTOS-Plus-TCP/source/FreeRTOS_TCP_Transmission.o:(.text.prvTCPPrepareSend)
    98fc     98fc        0     1                 $t.4
    98fd     98fd      1f0     1                 prvTCPPrepareSend
    9aec     9aec       7e     4         ./ra/aws/FreeRTOS/FreeRTOS-Plus/Source/FreeRTOS-Plus-TCP/source/FreeRTOS_TCP_Transmission.o:(.text.prvTCPReturn_CheckTCPWindow)
    9aec     9aec        0     1                 $t.5
    9aed     9aed       7e     1                 prvTCPReturn_CheckTCPWindow
    9b6c     9b6c       98     4         ./ra/aws/FreeRTOS/FreeRTOS-Plus/Source/FreeRTOS-Plus-TCP/source/FreeRTOS_TCP_Transmission.o:(.text.prvTCPReturn_SetSequenceNumber)
    9b6c     9b6c        0     1                 $t.6
    9b6d     9b6d       98     1                 prvTCPReturn_SetSequenceNumber
    9c04     9c04       30     4         ./ra/aws/FreeRTOS/FreeRTOS-Plus/Source/FreeRTOS-Plus-TCP/source/FreeRTOS_TCP_Transmission.o:(.text.prvTCPCreateWindow)
    9c04     9c04        0     1                 $t.7
    9c05     9c05       30     1                 prvTCPCreateWindow
    9c34     9c34       8c     4         ./ra/aws/FreeRTOS/FreeRTOS-Plus/Source/FreeRTOS-Plus-TCP/source/FreeRTOS_TCP_Transmission.o:(.text.prvTCPBufferResize)
    9c34     9c34        0     1                 $t.8
    9c35     9c35       8c     1                 prvTCPBufferResize
    9cc0     9cc0       40     4         ./ra/aws/FreeRTOS/FreeRTOS-Plus/Source/FreeRTOS-Plus-TCP/source/FreeRTOS_TCP_Transmission.o:(.text.prvTCPReturn_SetEndPoint)
    9cc0     9cc0        0     1                 $t.9
    9cc1     9cc1       40     1                 prvTCPReturn_SetEndPoint
    9d00     9d00       3a     4         ./ra/aws/FreeRTOS/FreeRTOS-Plus/Source/FreeRTOS-Plus-TCP/source/FreeRTOS_TCP_Transmission.o:(.text.prvTCPAddTxData)
    9d00     9d00        0     1                 $t.10
    9d01     9d01       3a     1                 prvTCPAddTxData
    9d3c     9d3c       4c     4         ./ra/aws/FreeRTOS/FreeRTOS-Plus/Source/FreeRTOS-Plus-TCP/source/FreeRTOS_TCP_Transmission.o:(.text.prvSetOptions)
    9d3c     9d3c        0     1                 $t.11
    9d3d     9d3d       4c     1                 prvSetOptions
    9d88     9d88       52     4         ./ra/aws/FreeRTOS/FreeRTOS-Plus/Source/FreeRTOS-Plus-TCP/source/FreeRTOS_TCP_Transmission.o:(.text.prvSendData)
    9d88     9d88        0     1                 $t.12
    9d89     9d89       52     1                 prvSendData
    9ddc     9ddc       1e     4         ./ra/aws/FreeRTOS/FreeRTOS-Plus/Source/FreeRTOS-Plus-TCP/source/FreeRTOS_TCP_Transmission.o:(.text.prvTCPSendChallengeAck)
    9ddc     9ddc        0     1                 $t.14
    9ddd     9ddd       1e     1                 prvTCPSendChallengeAck
    9dfc     9dfc       1e     4         ./ra/aws/FreeRTOS/FreeRTOS-Plus/Source/FreeRTOS-Plus-TCP/source/FreeRTOS_TCP_Transmission.o:(.text.prvTCPSendReset)
    9dfc     9dfc        0     1                 $t.15
    9dfd     9dfd       1e     1                 prvTCPSendReset
    9e1c     9e1c      2a0     4         ./ra/aws/FreeRTOS/FreeRTOS-Plus/Source/FreeRTOS-Plus-TCP/source/FreeRTOS_TCP_Transmission_IPv4.o:(.text.prvTCPReturnPacket_IPV4)
    9e1c     9e1c        0     1                 $t.0
    9e1d     9e1d      2a0     1                 prvTCPReturnPacket_IPV4
    a0bc     a0bc      10a     4         ./ra/aws/FreeRTOS/FreeRTOS-Plus/Source/FreeRTOS-Plus-TCP/source/FreeRTOS_TCP_Transmission_IPv4.o:(.text.prvTCPPrepareConnect_IPV4)
    a0bc     a0bc        0     1                 $t.1
    a0bd     a0bd      10a     1                 prvTCPPrepareConnect_IPV4
    a1c8     a1c8       56     4         ./ra/aws/FreeRTOS/FreeRTOS-Plus/Source/FreeRTOS-Plus-TCP/source/FreeRTOS_TCP_Transmission_IPv4.o:(.text.prvTCPSendSpecialPktHelper_IPV4)
    a1c8     a1c8        0     1                 $t.2
    a1c9     a1c9       56     1                 prvTCPSendSpecialPktHelper_IPV4
    a220     a220        c     4         ./ra/aws/FreeRTOS/FreeRTOS-Plus/Source/FreeRTOS-Plus-TCP/source/FreeRTOS_TCP_Utils.o:(.text.prvSocketSetMSS)
    a220     a220        0     1                 $t.0
    a221     a221        c     1                 prvSocketSetMSS
    a22c     a22c       34     4         ./ra/aws/FreeRTOS/FreeRTOS-Plus/Source/FreeRTOS-Plus-TCP/source/FreeRTOS_TCP_Utils_IPv4.o:(.text.prvSocketSetMSS_IPV4)
    a22c     a22c        0     1                 $t.0
    a22d     a22d       34     1                 prvSocketSetMSS_IPV4
    a260     a260        6     4         ./ra/aws/FreeRTOS/FreeRTOS-Plus/Source/FreeRTOS-Plus-TCP/source/FreeRTOS_TCP_WIN.o:(.text.xSequenceLessThan)
    a260     a260        0     1                 $t.0
    a261     a261        6     1                 xSequenceLessThan
    a268     a268        6     4         ./ra/aws/FreeRTOS/FreeRTOS-Plus/Source/FreeRTOS-Plus-TCP/source/FreeRTOS_TCP_WIN.o:(.text.xSequenceGreaterThan)
    a268     a268        0     1                 $t.1
    a269     a269        6     1                 xSequenceGreaterThan
    a270     a270       68     4         ./ra/aws/FreeRTOS/FreeRTOS-Plus/Source/FreeRTOS-Plus-TCP/source/FreeRTOS_TCP_WIN.o:(.text.xTCPWindowCreate)
    a270     a270        0     1                 $t.2
    a271     a271       68     1                 xTCPWindowCreate
    a2d8     a2d8       60     4         ./ra/aws/FreeRTOS/FreeRTOS-Plus/Source/FreeRTOS-Plus-TCP/source/FreeRTOS_TCP_WIN.o:(.text.vTCPWindowInit)
    a2d8     a2d8        0     1                 $t.3
    a2d9     a2d9       60     1                 vTCPWindowInit
    a338     a338       2a     4         ./ra/aws/FreeRTOS/FreeRTOS-Plus/Source/FreeRTOS-Plus-TCP/source/FreeRTOS_Tiny_TCP.o:(.text.lTCPWindowRxCheck)
    a338     a338        0     1                 $t.0
    a339     a339       2a     1                 lTCPWindowRxCheck
    a364     a364       44     4         ./ra/aws/FreeRTOS/FreeRTOS-Plus/Source/FreeRTOS-Plus-TCP/source/FreeRTOS_Tiny_TCP.o:(.text.lTCPWindowTxAdd)
    a364     a364        0     1                 $t.1
    a365     a365       44     1                 lTCPWindowTxAdd
    a3a8     a3a8       52     4         ./ra/aws/FreeRTOS/FreeRTOS-Plus/Source/FreeRTOS-Plus-TCP/source/FreeRTOS_Tiny_TCP.o:(.text.ulTCPWindowTxGet)
    a3a8     a3a8        0     1                 $t.2
    a3a9     a3a9       52     1                 ulTCPWindowTxGet
    a3fc     a3fc        a     4         ./ra/aws/FreeRTOS/FreeRTOS-Plus/Source/FreeRTOS-Plus-TCP/source/FreeRTOS_Tiny_TCP.o:(.text.xTCPWindowTxDone)
    a3fc     a3fc        0     1                 $t.3
    a3fd     a3fd        a     1                 xTCPWindowTxDone
    a408     a408       4a     4         ./ra/aws/FreeRTOS/FreeRTOS-Plus/Source/FreeRTOS-Plus-TCP/source/FreeRTOS_Tiny_TCP.o:(.text.xTCPWindowTxHasData)
    a408     a408        0     1                 $t.4
    a409     a409       4a     1                 xTCPWindowTxHasData
    a454     a454       20     4         ./ra/aws/FreeRTOS/FreeRTOS-Plus/Source/FreeRTOS-Plus-TCP/source/FreeRTOS_Tiny_TCP.o:(.text.ulTCPWindowTxAck)
    a454     a454        0     1                 $t.5
    a455     a455       20     1                 ulTCPWindowTxAck
    a474     a474        c     4         ./ra/aws/FreeRTOS/FreeRTOS-Plus/Source/FreeRTOS-Plus-TCP/source/FreeRTOS_Tiny_TCP.o:(.text.xTCPWindowRxEmpty)
    a474     a474        0     1                 $t.6
    a475     a475        c     1                 xTCPWindowRxEmpty
    a480     a480       1a     4         ./ra/aws/FreeRTOS/FreeRTOS-Plus/Source/FreeRTOS-Plus-TCP/source/FreeRTOS_UDP_IP.o:(.text.vProcessGeneratedUDPPacket)
    a480     a480        0     1                 $t.0
    a481     a481       1a     1                 vProcessGeneratedUDPPacket
    a49c     a49c       60     4         ./ra/aws/FreeRTOS/FreeRTOS-Plus/Source/FreeRTOS-Plus-TCP/source/FreeRTOS_UDP_IP.o:(.text.xProcessReceivedUDPPacket)
    a49c     a49c        0     1                 $t.1
    a49d     a49d       60     1                 xProcessReceivedUDPPacket
    a4fc     a4fc      166     4         ./ra/aws/FreeRTOS/FreeRTOS-Plus/Source/FreeRTOS-Plus-TCP/source/FreeRTOS_UDP_IPv4.o:(.text.vProcessGeneratedUDPPacket_IPv4)
    a4fc     a4fc        0     1                 $t.0
    a4fd     a4fd      166     1                 vProcessGeneratedUDPPacket_IPv4
    a664     a664       ce     4         ./ra/aws/FreeRTOS/FreeRTOS-Plus/Source/FreeRTOS-Plus-TCP/source/FreeRTOS_UDP_IPv4.o:(.text.xProcessReceivedUDPPacket_IPv4)
    a664     a664        0     1                 $t.1
    a665     a665       ce     1                 xProcessReceivedUDPPacket_IPv4
    a732     a732        4     2         D:\Renesas\RA\e2studio_v2023-07_fsp_v4.6.0\toolchains\llvm_arm\LLVM-ET-Arm-18.1.3-Windows-x86_64\bin\..\lib\clang-runtimes/arm-none-eabi/armv7em_hard_fpv4_sp_d16_exn_rtti\lib\libc.a(libc_stdlib_rand.c.o):(.text.rand)
    a732     a732        0     1                 $t.0
    a733     a733        4     1                 rand
    a738     a738       3c     4         D:\Renesas\RA\e2studio_v2023-07_fsp_v4.6.0\toolchains\llvm_arm\LLVM-ET-Arm-18.1.3-Windows-x86_64\bin\..\lib\clang-runtimes/arm-none-eabi/armv7em_hard_fpv4_sp_d16_exn_rtti\lib\libc.a(libc_stdlib_random.c.o):(.text.random)
    a738     a738        0     1                 $t.0
    a739     a739       3c     1                 random
    a768     a768        0     1                 $d.1
    a774     a774       1e     2         D:\Renesas\RA\e2studio_v2023-07_fsp_v4.6.0\toolchains\llvm_arm\LLVM-ET-Arm-18.1.3-Windows-x86_64\bin\..\lib\clang-runtimes/arm-none-eabi/armv7em_hard_fpv4_sp_d16_exn_rtti\lib\libc.a(libc_string_memcmp.c.o):(.text.memcmp)
    a774     a774        0     1                 $t.0
    a775     a775       1e     1                 memcmp
    a794     a794       2c     4         D:\Renesas\RA\e2studio_v2023-07_fsp_v4.6.0\toolchains\llvm_arm\LLVM-ET-Arm-18.1.3-Windows-x86_64\bin\..\lib\clang-runtimes/arm-none-eabi/armv7em_hard_fpv4_sp_d16_exn_rtti\lib\libc.a(libc_picolib_inittls.c.o):(.text._init_tls)
    a794     a794        0     1                 $t.0
    a795     a795       2c     1                 _init_tls
    a7b0     a7b0        0     1                 $d.1
    a7c0     a7c0       14     4         D:\Renesas\RA\e2studio_v2023-07_fsp_v4.6.0\toolchains\llvm_arm\LLVM-ET-Arm-18.1.3-Windows-x86_64\bin\..\lib\clang-runtimes/arm-none-eabi/armv7em_hard_fpv4_sp_d16_exn_rtti\lib\libc.a(libc_picolib_machine_arm_tls.c.o):(.text._set_tls)
    a7c0     a7c0        0     1                 $t.0
    a7c1     a7c1       14     1                 _set_tls
    a7cc     a7cc        0     1                 $d.1
    a7e0     a7e0        c    16         D:\Renesas\RA\e2studio_v2023-07_fsp_v4.6.0\toolchains\llvm_arm\LLVM-ET-Arm-18.1.3-Windows-x86_64\bin\..\lib\clang-runtimes/arm-none-eabi/armv7em_hard_fpv4_sp_d16_exn_rtti\lib\libc.a(libc_picolib_machine_arm_read_tp.S.o):(.text.__aeabi_read_tp)
    a7e0     a7e0        0     1                 $t.0
    a7e1     a7e1        0     1                 __aeabi_read_tp
    a7e8     a7e8        0     1                 $d.1
    a7ec     a7ec       64     4         D:\Renesas\RA\e2studio_v2023-07_fsp_v4.6.0\toolchains\llvm_arm\LLVM-ET-Arm-18.1.3-Windows-x86_64\bin\..\lib\clang-runtimes/arm-none-eabi/armv7em_hard_fpv4_sp_d16_exn_rtti\lib\libc.a(libc_tinystdio_snprintf.c.o):(.text.snprintf)
    a7ec     a7ec        0     1                 $t.0
    a7ed     a7ed       64     1                 snprintf
    a84c     a84c        0     1                 $d.1
    a850     a850       10     2         D:\Renesas\RA\e2studio_v2023-07_fsp_v4.6.0\toolchains\llvm_arm\LLVM-ET-Arm-18.1.3-Windows-x86_64\bin\..\lib\clang-runtimes/arm-none-eabi/armv7em_hard_fpv4_sp_d16_exn_rtti\lib\libc.a(libc_tinystdio_filestrput.c.o):(.text.__file_str_put)
    a850     a850        0     1                 $t.0
    a851     a851       10     1                 __file_str_put
    a860     a860      9ec     4         D:\Renesas\RA\e2studio_v2023-07_fsp_v4.6.0\toolchains\llvm_arm\LLVM-ET-Arm-18.1.3-Windows-x86_64\bin\..\lib\clang-runtimes/arm-none-eabi/armv7em_hard_fpv4_sp_d16_exn_rtti\lib\libc.a(libc_tinystdio_vfprintf.c.o):(.text.vfprintf)
    a860     a860        0     1                 $t.0
    a861     a861      9ec     1                 vfprintf
    a861     a861      9ec     1                 __d_vfprintf
    a8e2     a8e2        0     1                 $d.1
    a8ec     a8ec        0     1                 $t.2
    ab04     ab04        0     1                 $d.3
    ab12     ab12        0     1                 $t.4
    b240     b240        0     1                 $d.5
    b24c     b24c      164     4         D:\Renesas\RA\e2studio_v2023-07_fsp_v4.6.0\toolchains\llvm_arm\LLVM-ET-Arm-18.1.3-Windows-x86_64\bin\..\lib\clang-runtimes/arm-none-eabi/armv7em_hard_fpv4_sp_d16_exn_rtti\lib\libc.a(libc_tinystdio_vfprintf.c.o):(.text.skip_to_arg)
    b24c     b24c        0     1                 $t.6
    b24d     b24d      164     1                 skip_to_arg
    b3ac     b3ac        0     1                 $d.7
    b3b0     b3b0       4c     2         D:\Renesas\RA\e2studio_v2023-07_fsp_v4.6.0\toolchains\llvm_arm\LLVM-ET-Arm-18.1.3-Windows-x86_64\bin\..\lib\clang-runtimes/arm-none-eabi/armv7em_hard_fpv4_sp_d16_exn_rtti\lib\libc.a(libc_tinystdio_vfprintf.c.o):(.text.__ultoa_invert)
    b3b0     b3b0        0     1                 $t.8
    b3b1     b3b1       4c     1                 __ultoa_invert
    b3fc     b3fc        6     2         D:\Renesas\RA\e2studio_v2023-07_fsp_v4.6.0\toolchains\llvm_arm\LLVM-ET-Arm-18.1.3-Windows-x86_64\bin\..\lib\clang-runtimes/arm-none-eabi/armv7em_hard_fpv4_sp_d16_exn_rtti\lib\libc.a(libc_tinystdio_vfprintf.c.o):(.text.OUTLINED_FUNCTION_0)
    b3fc     b3fc        0     1                 $t.9
    b3fd     b3fd        6     1                 OUTLINED_FUNCTION_0
    b402     b402       12     2         D:\Renesas\RA\e2studio_v2023-07_fsp_v4.6.0\toolchains\llvm_arm\LLVM-ET-Arm-18.1.3-Windows-x86_64\bin\..\lib\clang-runtimes/arm-none-eabi/armv7em_hard_fpv4_sp_d16_exn_rtti\lib\libc.a(libc_tinystdio_vfprintf.c.o):(.text.OUTLINED_FUNCTION_1)
    b402     b402        0     1                 $t.10
    b403     b403       12     1                 OUTLINED_FUNCTION_1
    b414     b414        8     2         D:\Renesas\RA\e2studio_v2023-07_fsp_v4.6.0\toolchains\llvm_arm\LLVM-ET-Arm-18.1.3-Windows-x86_64\bin\..\lib\clang-runtimes/arm-none-eabi/armv7em_hard_fpv4_sp_d16_exn_rtti\lib\libc.a(libc_tinystdio_vfprintf.c.o):(.text.OUTLINED_FUNCTION_2)
    b414     b414        0     1                 $t.11
    b415     b415        8     1                 OUTLINED_FUNCTION_2
    b41c     b41c        8     2         D:\Renesas\RA\e2studio_v2023-07_fsp_v4.6.0\toolchains\llvm_arm\LLVM-ET-Arm-18.1.3-Windows-x86_64\bin\..\lib\clang-runtimes/arm-none-eabi/armv7em_hard_fpv4_sp_d16_exn_rtti\lib\libc.a(libc_tinystdio_vfprintf.c.o):(.text.OUTLINED_FUNCTION_3)
    b41c     b41c        0     1                 $t.12
    b41d     b41d        8     1                 OUTLINED_FUNCTION_3
    b424     b424        8     2         D:\Renesas\RA\e2studio_v2023-07_fsp_v4.6.0\toolchains\llvm_arm\LLVM-ET-Arm-18.1.3-Windows-x86_64\bin\..\lib\clang-runtimes/arm-none-eabi/armv7em_hard_fpv4_sp_d16_exn_rtti\lib\libc.a(libc_tinystdio_vfprintf.c.o):(.text.OUTLINED_FUNCTION_4)
    b424     b424        0     1                 $t.13
    b425     b425        8     1                 OUTLINED_FUNCTION_4
    b42c     b42c        8     2         D:\Renesas\RA\e2studio_v2023-07_fsp_v4.6.0\toolchains\llvm_arm\LLVM-ET-Arm-18.1.3-Windows-x86_64\bin\..\lib\clang-runtimes/arm-none-eabi/armv7em_hard_fpv4_sp_d16_exn_rtti\lib\libc.a(libc_tinystdio_vfprintf.c.o):(.text.OUTLINED_FUNCTION_5)
    b42c     b42c        0     1                 $t.14
    b42d     b42d        8     1                 OUTLINED_FUNCTION_5
    b434     b434      134     4         D:\Renesas\RA\e2studio_v2023-07_fsp_v4.6.0\toolchains\llvm_arm\LLVM-ET-Arm-18.1.3-Windows-x86_64\bin\..\lib\clang-runtimes/arm-none-eabi/armv7em_hard_fpv4_sp_d16_exn_rtti\lib\libc.a(libc_tinystdio_dtox_engine.c.o):(.text.__dtox_engine)
    b434     b434        0     1                 $t.0
    b435     b435      134     1                 __dtox_engine
    b564     b564        0     1                 $d.1
    b568     b568       1a     2         D:\Renesas\RA\e2studio_v2023-07_fsp_v4.6.0\toolchains\llvm_arm\LLVM-ET-Arm-18.1.3-Windows-x86_64\bin\..\lib\clang-runtimes/arm-none-eabi/armv7em_hard_fpv4_sp_d16_exn_rtti\lib\libc.a(libc_string_strnlen.c.o):(.text.strnlen)
    b568     b568        0     1                 $t.0
    b569     b569       1a     1                 strnlen
    b582     b582      448     2         D:\Renesas\RA\e2studio_v2023-07_fsp_v4.6.0\toolchains\llvm_arm\LLVM-ET-Arm-18.1.3-Windows-x86_64\bin\..\lib\clang-runtimes/arm-none-eabi/armv7em_hard_fpv4_sp_d16_exn_rtti\lib\libc.a(libc_tinystdio_dtoa_ryu.c.o):(.text.__dtoa_engine)
    b582     b582        0     1                 $t.0
    b583     b583      448     1                 __dtoa_engine
    b9ca     b9ca       12     2         D:\Renesas\RA\e2studio_v2023-07_fsp_v4.6.0\toolchains\llvm_arm\LLVM-ET-Arm-18.1.3-Windows-x86_64\bin\..\lib\clang-runtimes/arm-none-eabi/armv7em_hard_fpv4_sp_d16_exn_rtti\lib\libc.a(libc_tinystdio_dtoa_ryu.c.o):(.text.div10)
    b9ca     b9ca        0     1                 $t.1
    b9cb     b9cb       12     1                 div10
    b9dc     b9dc       20     4         D:\Renesas\RA\e2studio_v2023-07_fsp_v4.6.0\toolchains\llvm_arm\LLVM-ET-Arm-18.1.3-Windows-x86_64\bin\..\lib\clang-runtimes/arm-none-eabi/armv7em_hard_fpv4_sp_d16_exn_rtti\lib\libc.a(libc_tinystdio_dtoa_ryu.c.o):(.text.umulh)
    b9dc     b9dc        0     1                 $t.2
    b9dd     b9dd       20     1                 umulh
    b9f8     b9f8        0     1                 $d.3
    b9fc     b9fc      1da     2         D:\Renesas\RA\e2studio_v2023-07_fsp_v4.6.0\toolchains\llvm_arm\LLVM-ET-Arm-18.1.3-Windows-x86_64\bin\..\lib\clang-runtimes/arm-none-eabi/armv7em_hard_fpv4_sp_d16_exn_rtti\lib\libc.a(libc_tinystdio_dtoa_ryu.c.o):(.text.mulShiftAll64)
    b9fc     b9fc        0     1                 $t.4
    b9fd     b9fd      1da     1                 mulShiftAll64
    bbd6     bbd6       30     2         D:\Renesas\RA\e2studio_v2023-07_fsp_v4.6.0\toolchains\llvm_arm\LLVM-ET-Arm-18.1.3-Windows-x86_64\bin\..\lib\clang-runtimes/arm-none-eabi/armv7em_hard_fpv4_sp_d16_exn_rtti\lib\libc.a(libc_tinystdio_dtoa_ryu.c.o):(.text.decimalLength17)
    bbd6     bbd6        0     1                 $t.5
    bbd7     bbd7       30     1                 decimalLength17
    bc06     bc06       16     2         D:\Renesas\RA\e2studio_v2023-07_fsp_v4.6.0\toolchains\llvm_arm\LLVM-ET-Arm-18.1.3-Windows-x86_64\bin\..\lib\clang-runtimes/arm-none-eabi/armv7em_hard_fpv4_sp_d16_exn_rtti\lib\libc.a(libc_tinystdio_dtoa_ryu.c.o):(.text.OUTLINED_FUNCTION_0)
    bc06     bc06        0     1                 $t.6
    bc07     bc07       16     1                 OUTLINED_FUNCTION_0
    bc1c     bc1c        c     4         D:\Renesas\RA\e2studio_v2023-07_fsp_v4.6.0\toolchains\llvm_arm\LLVM-ET-Arm-18.1.3-Windows-x86_64\bin\..\lib\clang-runtimes/arm-none-eabi/armv7em_hard_fpv4_sp_d16_exn_rtti\lib\libc.a(libc_tinystdio_ryu_log10.c.o):(.text.__log10Pow2)
    bc1c     bc1c        0     1                 $t.0
    bc1d     bc1d        c     1                 __log10Pow2
    bc24     bc24        0     1                 $d.1
    bc28     bc28        c     4         D:\Renesas\RA\e2studio_v2023-07_fsp_v4.6.0\toolchains\llvm_arm\LLVM-ET-Arm-18.1.3-Windows-x86_64\bin\..\lib\clang-runtimes/arm-none-eabi/armv7em_hard_fpv4_sp_d16_exn_rtti\lib\libc.a(libc_tinystdio_ryu_log10.c.o):(.text.__log10Pow5)
    bc28     bc28        0     1                 $t.2
    bc29     bc29        c     1                 __log10Pow5
    bc30     bc30        0     1                 $d.3
    bc34     bc34       10     4         D:\Renesas\RA\e2studio_v2023-07_fsp_v4.6.0\toolchains\llvm_arm\LLVM-ET-Arm-18.1.3-Windows-x86_64\bin\..\lib\clang-runtimes/arm-none-eabi/armv7em_hard_fpv4_sp_d16_exn_rtti\lib\libc.a(libc_tinystdio_ryu_pow5bits.c.o):(.text.__pow5bits)
    bc34     bc34        0     1                 $t.0
    bc35     bc35       10     1                 __pow5bits
    bc40     bc40        0     1                 $d.1
    bc44     bc44       3c     4         D:\Renesas\RA\e2studio_v2023-07_fsp_v4.6.0\toolchains\llvm_arm\LLVM-ET-Arm-18.1.3-Windows-x86_64\bin\..\lib\clang-runtimes/arm-none-eabi/armv7em_hard_fpv4_sp_d16_exn_rtti\lib\libc.a(libc_tinystdio_ryu_table.c.o):(.text.__pow5Factor)
    bc44     bc44        0     1                 $t.0
    bc45     bc45       3c     1                 __pow5Factor
    bc78     bc78        0     1                 $d.1
    bc80     bc80       dc     4         D:\Renesas\RA\e2studio_v2023-07_fsp_v4.6.0\toolchains\llvm_arm\LLVM-ET-Arm-18.1.3-Windows-x86_64\bin\..\lib\clang-runtimes/arm-none-eabi/armv7em_hard_fpv4_sp_d16_exn_rtti\lib\libc.a(libc_tinystdio_ryu_table.c.o):(.text.__double_computePow5)
    bc80     bc80        0     1                 $t.2
    bc81     bc81       dc     1                 __double_computePow5
    bd50     bd50        0     1                 $d.3
    bd5c     bd5c       e8     4         D:\Renesas\RA\e2studio_v2023-07_fsp_v4.6.0\toolchains\llvm_arm\LLVM-ET-Arm-18.1.3-Windows-x86_64\bin\..\lib\clang-runtimes/arm-none-eabi/armv7em_hard_fpv4_sp_d16_exn_rtti\lib\libc.a(libc_tinystdio_ryu_table.c.o):(.text.__double_computeInvPow5)
    bd5c     bd5c        0     1                 $t.4
    bd5d     bd5d       e8     1                 __double_computeInvPow5
    be38     be38        0     1                 $d.5
    be44     be44       14     2         D:\Renesas\RA\e2studio_v2023-07_fsp_v4.6.0\toolchains\llvm_arm\LLVM-ET-Arm-18.1.3-Windows-x86_64\bin\..\lib\clang-runtimes/arm-none-eabi/armv7em_hard_fpv4_sp_d16_exn_rtti\lib\libc.a(libc_tinystdio_ryu_table.c.o):(.text.OUTLINED_FUNCTION_0)
    be44     be44        0     1                 $t.6
    be45     be45       14     1                 OUTLINED_FUNCTION_0
    be58     be58       10     2         D:\Renesas\RA\e2studio_v2023-07_fsp_v4.6.0\toolchains\llvm_arm\LLVM-ET-Arm-18.1.3-Windows-x86_64\bin\..\lib\clang-runtimes/arm-none-eabi/armv7em_hard_fpv4_sp_d16_exn_rtti\lib\libc.a(libc_tinystdio_ryu_table.c.o):(.text.OUTLINED_FUNCTION_1)
    be58     be58        0     1                 $t.7
    be59     be59       10     1                 OUTLINED_FUNCTION_1
    be68     be68       10     2         D:\Renesas\RA\e2studio_v2023-07_fsp_v4.6.0\toolchains\llvm_arm\LLVM-ET-Arm-18.1.3-Windows-x86_64\bin\..\lib\clang-runtimes/arm-none-eabi/armv7em_hard_fpv4_sp_d16_exn_rtti\lib\libc.a(libc_tinystdio_ryu_table.c.o):(.text.OUTLINED_FUNCTION_2)
    be68     be68        0     1                 $t.8
    be69     be69       10     1                 OUTLINED_FUNCTION_2
    be78     be78       42     2         D:\Renesas\RA\e2studio_v2023-07_fsp_v4.6.0\toolchains\llvm_arm\LLVM-ET-Arm-18.1.3-Windows-x86_64\bin\..\lib\clang-runtimes/arm-none-eabi/armv7em_hard_fpv4_sp_d16_exn_rtti\lib\libc.a(libc_tinystdio_ryu_umul128.c.o):(.text.__umul128)
    be78     be78        0     1                 $t.0
    be79     be79       42     1                 __umul128
    beba     beba       36     2         D:\Renesas\RA\e2studio_v2023-07_fsp_v4.6.0\toolchains\llvm_arm\LLVM-ET-Arm-18.1.3-Windows-x86_64\bin\..\lib\clang-runtimes/arm-none-eabi/armv7em_hard_fpv4_sp_d16_exn_rtti\lib\libc.a(libc_tinystdio_ryu_umul128.c.o):(.text.__shiftright128)
    beba     beba        0     1                 $t.1
    bebb     bebb       36     1                 __shiftright128
    bef0     bef0        a     2         D:\Renesas\RA\e2studio_v2023-07_fsp_v4.6.0\toolchains\llvm_arm\LLVM-ET-Arm-18.1.3-Windows-x86_64\bin\..\lib\clang-runtimes/arm-none-eabi/armv7em_hard_fpv4_sp_d16_exn_rtti\lib\libc.a(aeabi_memset.c.o):(.text.__aeabi_memset)
    bef0     bef0        0     1                 $t.0
    bef1     bef1        a     1                 __aeabi_memset
    bef1     bef1        a     1                 __aeabi_memset4
    bef1     bef1        a     1                 __aeabi_memset8
    befa     befa        8     2         D:\Renesas\RA\e2studio_v2023-07_fsp_v4.6.0\toolchains\llvm_arm\LLVM-ET-Arm-18.1.3-Windows-x86_64\bin\..\lib\clang-runtimes/arm-none-eabi/armv7em_hard_fpv4_sp_d16_exn_rtti\lib\libc.a(bzero.c.o):(.text.bzero)
    befa     befa        0     1                 $t.0
    befb     befb        8     1                 bzero
    befb     befb        8     1                 __aeabi_memclr4
    befb     befb        8     1                 __aeabi_memclr8
    befb     befb        8     1                 __aeabi_memclr
    bf02     bf02       14     2         D:\Renesas\RA\e2studio_v2023-07_fsp_v4.6.0\toolchains\llvm_arm\LLVM-ET-Arm-18.1.3-Windows-x86_64\bin\..\lib\clang-runtimes/arm-none-eabi/armv7em_hard_fpv4_sp_d16_exn_rtti\lib\libc.a(memcpy.c.o):(.text.memcpy)
    bf02     bf02        0     1                 $t.0
    bf03     bf03       14     1                 memcpy
    bf03     bf03       14     1                 __aeabi_memcpy4
    bf03     bf03       14     1                 __aeabi_memcpy8
    bf03     bf03       14     1                 __aeabi_memcpy
    bf16     bf16       2e     2         D:\Renesas\RA\e2studio_v2023-07_fsp_v4.6.0\toolchains\llvm_arm\LLVM-ET-Arm-18.1.3-Windows-x86_64\bin\..\lib\clang-runtimes/arm-none-eabi/armv7em_hard_fpv4_sp_d16_exn_rtti\lib\libc.a(memmove.c.o):(.text.memmove)
    bf16     bf16        0     1                 $t.0
    bf17     bf17       2e     1                 memmove
    bf17     bf17       2e     1                 __aeabi_memmove4
    bf17     bf17       2e     1                 __aeabi_memmove8
    bf17     bf17       2e     1                 __aeabi_memmove
    bf44     bf44        e     2         D:\Renesas\RA\e2studio_v2023-07_fsp_v4.6.0\toolchains\llvm_arm\LLVM-ET-Arm-18.1.3-Windows-x86_64\bin\..\lib\clang-runtimes/arm-none-eabi/armv7em_hard_fpv4_sp_d16_exn_rtti\lib\libc.a(memset.c.o):(.text.memset)
    bf44     bf44        0     1                 $t.0
    bf45     bf45        e     1                 memset
    bf54     bf54       28     4         D:\Renesas\RA\e2studio_v2023-07_fsp_v4.6.0\toolchains\llvm_arm\LLVM-ET-Arm-18.1.3-Windows-x86_64\bin\..\lib\clang-runtimes/arm-none-eabi/armv7em_hard_fpv4_sp_d16_exn_rtti\lib\libclang_rt.builtins.a(ashldi3.c.obj):(.text.__ashldi3)
    bf54     bf54        0     1                 $t.0
    bf55     bf55       28     1                 __ashldi3
    bf55     bf55       28     1                 __aeabi_llsl
    bf7c     bf7c       28     4         D:\Renesas\RA\e2studio_v2023-07_fsp_v4.6.0\toolchains\llvm_arm\LLVM-ET-Arm-18.1.3-Windows-x86_64\bin\..\lib\clang-runtimes/arm-none-eabi/armv7em_hard_fpv4_sp_d16_exn_rtti\lib\libclang_rt.builtins.a(lshrdi3.c.obj):(.text.__lshrdi3)
    bf7c     bf7c        0     1                 $t.0
    bf7d     bf7d       28     1                 __lshrdi3
    bf7d     bf7d       28     1                 __aeabi_llsr
    bfa4     bfa4       14     4         D:\Renesas\RA\e2studio_v2023-07_fsp_v4.6.0\toolchains\llvm_arm\LLVM-ET-Arm-18.1.3-Windows-x86_64\bin\..\lib\clang-runtimes/arm-none-eabi/armv7em_hard_fpv4_sp_d16_exn_rtti\lib\libclang_rt.builtins.a(aeabi_uldivmod.S.obj):(.text)
    bfa4     bfa4        0     1                 $t.0
    bfa5     bfa5       14     1                 __aeabi_uldivmod
    bfb8     bfb8      26e     4         D:\Renesas\RA\e2studio_v2023-07_fsp_v4.6.0\toolchains\llvm_arm\LLVM-ET-Arm-18.1.3-Windows-x86_64\bin\..\lib\clang-runtimes/arm-none-eabi/armv7em_hard_fpv4_sp_d16_exn_rtti\lib\libclang_rt.builtins.a(udivmoddi4.c.obj):(.text.__udivmoddi4)
    bfb8     bfb8        0     1                 $t.0
    bfb9     bfb9      26e     1                 __udivmoddi4
    c226     c226       11     1         ./src/SEGGER_RTT/SEGGER_RTT.o:(.rodata._DoInit._aInitStr)
    c226     c226       11     1                 _DoInit._aInitStr
    c237     c237     21ba     1         <internal>:(.rodata.str1.1)
    e3f4     e3f4       20     4         <internal>:(.rodata.cst16)
    e414     e414        2     1         ./ra_gen/common_data.o:(.rodata.g_ether_phy_lsi0)
    e414     e414        2     1                 g_ether_phy_lsi0
    e418     e418       10     4         ./ra_gen/common_data.o:(.rodata.g_ether_phy0_extended_cfg)
    e418     e418       10     1                 g_ether_phy0_extended_cfg
    e428     e428       18     4         ./ra_gen/common_data.o:(.rodata.g_ether_phy0_cfg)
    e428     e428       18     1                 g_ether_phy0_cfg
    e440     e440        c     4         ./ra_gen/common_data.o:(.rodata.g_ether_phy0)
    e440     e440        c     1                 g_ether_phy0
    e44c     e44c       10     4         ./ra_gen/common_data.o:(.rodata.g_ether0_extended_cfg_t)
    e44c     e44c       10     1                 g_ether0_extended_cfg_t
    e45c     e45c       38     4         ./ra_gen/common_data.o:(.rodata.g_ether0_cfg)
    e45c     e45c       38     1                 g_ether0_cfg
    e494     e494        c     4         ./ra_gen/common_data.o:(.rodata.g_ether0)
    e494     e494        c     1                 g_ether0
    e4a0     e4a0        4     4         ./ra_gen/new_thread0.o:(.rodata.new_thread0_parameters)
    e4a0     e4a0        4     1                 new_thread0_parameters
    e4a4     e4a4       70     4         ./ra_gen/pin_data.o:(.rodata.g_bsp_pin_cfg_data)
    e4a4     e4a4       70     1                 g_bsp_pin_cfg_data
    e514     e514        c     4         ./ra_gen/pin_data.o:(.rodata.g_bsp_pin_cfg)
    e514     e514        c     1                 g_bsp_pin_cfg
    e520     e520        2     2         ./ra_gen/vector_data.o:(.rodata.g_interrupt_event_link_select)
    e520     e520        2     1                 g_interrupt_event_link_select
    e522     e522        6     2         ./ra/fsp/src/r_ioport/r_ioport.o:(.rodata.g_vbatt_pins_input)
    e522     e522        6     1                 g_vbatt_pins_input
    e528     e528       20     4         ./ra/fsp/src/r_ether_phy/r_ether_phy.o:(.rodata.g_ether_phy_on_ether_phy)
    e528     e528       20     1                 g_ether_phy_on_ether_phy
    e548     e548       28     4         ./ra/fsp/src/r_ether/r_ether.o:(.rodata.g_ether_on_ether)
    e548     e548       28     1                 g_ether_on_ether
    e570     e570       30     4         ./ra/fsp/src/r_ether/r_ether.o:(.rodata.ether_eesr_event_mask)
    e570     e570       30     1                 ether_eesr_event_mask
    e5a0     e5a0       40     4         <internal>:(.rodata.cst32)
    e5e0     e5e0        a     2         ./ra/fsp/src/bsp/mcu/all/bsp_register_protection.o:(.rodata.g_prcr_masks)
    e5e0     e5e0        a     1                 g_prcr_masks
    e5ec     e5ec        4     4         ./ra/aws/FreeRTOS/FreeRTOS/Source/tasks.o:(.rodata.uxTopUsedPriority)
    e5ec     e5ec        4     1                 uxTopUsedPriority
    e5f0     e5f0        4     4         ./ra/aws/FreeRTOS/FreeRTOS-Plus/Source/FreeRTOS-Plus-TCP/source/portable/BufferManagement/BufferAllocation_2.o:(.rodata.xBufferAllocFixedSize)
    e5f0     e5f0        4     1                 xBufferAllocFixedSize
    e5f4     e5f4       26     4         ./ra/aws/FreeRTOS/FreeRTOS-Plus/Source/FreeRTOS-Plus-TCP/source/FreeRTOS_ARP.o:(.rodata.vARPGenerateRequestPacket.xDefaultPartARPPacketHeader)
    e5f4     e5f4       26     1                 vARPGenerateRequestPacket.xDefaultPartARPPacketHeader
    e61a     e61a        6     1         ./ra/aws/FreeRTOS/FreeRTOS-Plus/Source/FreeRTOS-Plus-TCP/source/FreeRTOS_DNS.o:(.rodata.xLLMNR_MacAddress)
    e61a     e61a        6     1                 xLLMNR_MacAddress
    e620     e620        6     1         ./ra/aws/FreeRTOS/FreeRTOS-Plus/Source/FreeRTOS-Plus-TCP/source/FreeRTOS_DNS.o:(.rodata.xLLMNR_MacAddressIPv6)
    e620     e620        6     1                 xLLMNR_MacAddressIPv6
    e626     e626        6     1         ./ra/aws/FreeRTOS/FreeRTOS-Plus/Source/FreeRTOS-Plus-TCP/source/FreeRTOS_DNS.o:(.rodata.xMDNS_MacAddress)
    e626     e626        6     1                 xMDNS_MacAddress
    e62c     e62c        6     1         ./ra/aws/FreeRTOS/FreeRTOS-Plus/Source/FreeRTOS-Plus-TCP/source/FreeRTOS_DNS.o:(.rodata.xMDNS_MacAddressIPv6)
    e62c     e62c        6     1                 xMDNS_MacAddressIPv6
    e632     e632        6     1         ./ra/aws/FreeRTOS/FreeRTOS-Plus/Source/FreeRTOS-Plus-TCP/source/FreeRTOS_IP.o:(.rodata.xBroadcastMACAddress)
    e632     e632        6     1                 xBroadcastMACAddress
    e638     e638        8     8         <internal>:(.rodata.cst8)
    e640     e640       30     4         ./ra/aws/FreeRTOS/FreeRTOS-Plus/Source/FreeRTOS-Plus-TCP/source/FreeRTOS_TCP_State_Handling.o:(.rodata..Lswitch.table.prvTCPSocketIsActive)
    e640     e640       30     1                 .Lswitch.table.prvTCPSocketIsActive
    e670     e670       18     4         ./ra/aws/FreeRTOS/FreeRTOS-Plus/Source/FreeRTOS-Plus-TCP/source/FreeRTOS_UDP_IPv4.o:(.rodata.vProcessGeneratedUDPPacket_IPv4.ucDefaultPartUDPPacketHeader)
    e670     e670       18     1                 vProcessGeneratedUDPPacket_IPv4.ucDefaultPartUDPPacketHeader
    e688     e688      33c     8         D:\Renesas\RA\e2studio_v2023-07_fsp_v4.6.0\toolchains\llvm_arm\LLVM-ET-Arm-18.1.3-Windows-x86_64\bin\..\lib\clang-runtimes/arm-none-eabi/armv7em_hard_fpv4_sp_d16_exn_rtti\lib\libc.a(libc_tinystdio_ryu_table.c.o):(.rodata)
    e688     e688       d0     1                 DOUBLE_POW5_SPLIT2
    e758     e758       d0     1                 DOUBLE_POW5_TABLE
    e828     e828       54     1                 POW5_OFFSETS
    e880     e880       f0     1                 DOUBLE_POW5_INV_SPLIT2
    e970     e970       54     1                 POW5_INV_OFFSETS
    e9c4     e9c4       4e     4         ./ra/fsp/src/bsp/mcu/all/bsp_common.o:(.version)
    e9c4     e9c4        4     1                 g_fsp_version
    e9c8     e9c8        6     1                 g_fsp_version_string
    e9ce     e9ce       44     1                 g_fsp_version_build_string
    ea12     ea12        0     1         __flash_readonly$$Limit = .
    ea12     ea12        0     1 __flash_preinit_array$$
    ea12     ea12        0     1         __preinit_array_start = .
    ea12     ea12        0     1         __preinit_array_end = .
    ea12     ea12        0     1 __flash_init_array$$
    ea12     ea12        0     1         __init_array_start = .
    ea12     ea12        0     1         __init_array_end = .
    ea12     ea12        0     1 __flash_fini_array$$
    ea12     ea12        0     1         __fini_array_start = .
    ea12     ea12        0     1         __fini_array_end = .
    ea12     ea12        0     1 __flash_arm.exidx$$
    ea12     ea12        0     1         __exidx_start = .
    ea12     ea12        0     1         __exidx_end = .
    ec00     ec00        0     1 .flash.endof
    ec00     ec00        0     1         __ddsc_FLASH_END = .
     400      400        0     1 .option_setting_ofs0.startof
     400      400        0     1         __ddsc_OPTION_SETTING_OFS0_START = .
     400      400        4     4 __option_setting_ofs0_reg$$
     400      400        0     1         __option_setting_ofs0_reg$$Base = .
     400      400        4     4         ./ra/fsp/src/bsp/mcu/ra6m2/bsp_linker.o:(.option_setting_ofs0)
     400      400        4     1                 g_bsp_cfg_option_setting_ofs0
     404      404        0     1         __option_setting_ofs0_reg$$Limit = .
     404      404        0     1 .option_setting_ofs0.endof
     404      404        0     1         __ddsc_OPTION_SETTING_OFS0_END = .
     404      404        0     1 .option_setting_ofs1.startof
     404      404        0     1         __ddsc_OPTION_SETTING_OFS1_START = .
     404      404        4     4 __option_setting_ofs1_reg$$
     404      404        0     1         __option_setting_ofs1_reg$$Base = .
     404      404        4     4         ./ra/fsp/src/bsp/mcu/ra6m2/bsp_linker.o:(.option_setting_ofs1)
     404      404        4     1                 g_bsp_cfg_option_setting_ofs1
     408      408        0     1         __option_setting_ofs1_reg$$Limit = .
     408      408        0     1 .option_setting_ofs1.endof
     408      408        0     1         __ddsc_OPTION_SETTING_OFS1_END = .
     408      408        0     1 .option_setting_secmpu.startof
     408      408        0     1         __ddsc_OPTION_SETTING_SECMPU_START = .
     408      408        0     1 __option_setting_secmpu_reg$$
     408      408        0     1         __option_setting_secmpu_reg$$Base = .
     408      408        0     1         __option_setting_secmpu_reg$$Limit = .
     408      408        0     1 .option_setting_secmpu.endof
     408      408        0     1         __ddsc_OPTION_SETTING_SECMPU_END = .
 100a150  100a150        0     1 .option_setting_osis.startof
 100a150  100a150        0     1         __ddsc_OPTION_SETTING_OSIS_START = .
 100a150  100a150        0     1 __option_setting_osis_reg$$
 100a150  100a150        0     1         __option_setting_osis_reg$$Base = .
 100a150  100a150        0     1         __option_setting_osis_reg$$Limit = .
 100a150  100a150        0     1 .option_setting_osis.endof
 100a150  100a150        0     1         __ddsc_OPTION_SETTING_OSIS_END = .
 100a150  100a150        0     1 PROVIDE ( __tls_base = ADDR ( __ram_tdata$$ ) )
 100a150  100a150        0     1 PROVIDE ( __tdata_source = LOADADDR ( __ram_tdata$$ ) )
 100a150  100a150        0     1 PROVIDE ( __tdata_size = SIZEOF ( __ram_tdata$$ ) )
 100a150  100a150        0     1 PROVIDE ( __tbss_offset = ADDR ( __ram_tbss$$ ) - ADDR ( __ram_tdata$$ ) )
 100a150  100a150        0     1 PROVIDE ( __tbss_size = SIZEOF ( __ram_tbss$$ ) )
 100a150  100a150        0     1 PROVIDE ( __arm32_tls_tcb_offset = 8 )
       0        0    14344     1 .debug_loclists
       0        0     1766     1         ./src/SEGGER_RTT/SEGGER_RTT.o:(.debug_loclists)
    1766     1766      7e7     1         ./src/SEGGER_RTT/SEGGER_RTT_printf.o:(.debug_loclists)
    1f4d     1f4d       1e     1         ./src/hal_warmstart.o:(.debug_loclists)
    1f6b     1f6b       e7     1         ./src/new_thread0_entry.o:(.debug_loclists)
    2052     2052       45     1         ./ra_gen/main.o:(.debug_loclists)
    2097     2097       22     1         ./ra_gen/new_thread0.o:(.debug_loclists)
    20b9     20b9      1d7     1         ./ra/fsp/src/rm_freertos_port/port.o:(.debug_loclists)
    2290     2290      3b1     1         ./ra/fsp/src/rm_freertos_plus_tcp/NetworkInterface.o:(.debug_loclists)
    2641     2641      4e9     1         ./ra/fsp/src/r_ioport/r_ioport.o:(.debug_loclists)
    2b2a     2b2a      92d     1         ./ra/fsp/src/r_ether_phy/r_ether_phy.o:(.debug_loclists)
    3457     3457      b6b     1         ./ra/fsp/src/r_ether/r_ether.o:(.debug_loclists)
    3fc2     3fc2      1fe     1         ./ra/fsp/src/bsp/mcu/all/bsp_clocks.o:(.debug_loclists)
    41c0     41c0       1d     1         ./ra/fsp/src/bsp/mcu/all/bsp_common.o:(.debug_loclists)
    41dd     41dd      107     1         ./ra/fsp/src/bsp/mcu/all/bsp_delay.o:(.debug_loclists)
    42e4     42e4       35     1         ./ra/fsp/src/bsp/mcu/all/bsp_group_irq.o:(.debug_loclists)
    4319     4319       55     1         ./ra/fsp/src/bsp/mcu/all/bsp_register_protection.o:(.debug_loclists)
    436e     436e       3c     1         ./ra/fsp/src/bsp/mcu/all/bsp_sbrk.o:(.debug_loclists)
    43aa     43aa       36     1         ./ra/fsp/src/bsp/mcu/all/bsp_sdram.o:(.debug_loclists)
    43e0     43e0       64     1         ./ra/fsp/src/bsp/cmsis/Device/RENESAS/Source/system.o:(.debug_loclists)
    4444     4444      2d0     1         ./ra/aws/FreeRTOS/FreeRTOS/Source/portable/MemMang/heap_4.o:(.debug_loclists)
    4714     4714      6a5     1         ./ra/aws/FreeRTOS/FreeRTOS/Source/event_groups.o:(.debug_loclists)
    4db9     4db9       7d     1         ./ra/aws/FreeRTOS/FreeRTOS/Source/list.o:(.debug_loclists)
    4e36     4e36     1052     1         ./ra/aws/FreeRTOS/FreeRTOS/Source/queue.o:(.debug_loclists)
    5e88     5e88     10c5     1         ./ra/aws/FreeRTOS/FreeRTOS/Source/stream_buffer.o:(.debug_loclists)
    6f4d     6f4d     1689     1         ./ra/aws/FreeRTOS/FreeRTOS/Source/tasks.o:(.debug_loclists)
    85d6     85d6      a74     1         ./ra/aws/FreeRTOS/FreeRTOS/Source/timers.o:(.debug_loclists)
    904a     904a      308     1         ./ra/aws/FreeRTOS/FreeRTOS-Plus/Source/FreeRTOS-Plus-TCP/source/portable/BufferManagement/BufferAllocation_2.o:(.debug_loclists)
    9352     9352      93f     1         ./ra/aws/FreeRTOS/FreeRTOS-Plus/Source/FreeRTOS-Plus-TCP/source/FreeRTOS_ARP.o:(.debug_loclists)
    9c91     9c91      4bf     1         ./ra/aws/FreeRTOS/FreeRTOS-Plus/Source/FreeRTOS-Plus-TCP/source/FreeRTOS_BitConfig.o:(.debug_loclists)
    a150     a150      97d     1         ./ra/aws/FreeRTOS/FreeRTOS-Plus/Source/FreeRTOS-Plus-TCP/source/FreeRTOS_DNS.o:(.debug_loclists)
    aacd     aacd      435     1         ./ra/aws/FreeRTOS/FreeRTOS-Plus/Source/FreeRTOS-Plus-TCP/source/FreeRTOS_DNS_Cache.o:(.debug_loclists)
    af02     af02       e2     1         ./ra/aws/FreeRTOS/FreeRTOS-Plus/Source/FreeRTOS-Plus-TCP/source/FreeRTOS_DNS_Networking.o:(.debug_loclists)
    afe4     afe4      8a0     1         ./ra/aws/FreeRTOS/FreeRTOS-Plus/Source/FreeRTOS-Plus-TCP/source/FreeRTOS_DNS_Parser.o:(.debug_loclists)
    b884     b884       f8     1         ./ra/aws/FreeRTOS/FreeRTOS-Plus/Source/FreeRTOS-Plus-TCP/source/FreeRTOS_ICMP.o:(.debug_loclists)
    b97c     b97c      b55     1         ./ra/aws/FreeRTOS/FreeRTOS-Plus/Source/FreeRTOS-Plus-TCP/source/FreeRTOS_IP.o:(.debug_loclists)
    c4d1     c4d1      24f     1         ./ra/aws/FreeRTOS/FreeRTOS-Plus/Source/FreeRTOS-Plus-TCP/source/FreeRTOS_IP_Timers.o:(.debug_loclists)
    c720     c720      854     1         ./ra/aws/FreeRTOS/FreeRTOS-Plus/Source/FreeRTOS-Plus-TCP/source/FreeRTOS_IP_Utils.o:(.debug_loclists)
    cf74     cf74      367     1         ./ra/aws/FreeRTOS/FreeRTOS-Plus/Source/FreeRTOS-Plus-TCP/source/FreeRTOS_IPv4.o:(.debug_loclists)
    d2db     d2db      1b4     1         ./ra/aws/FreeRTOS/FreeRTOS-Plus/Source/FreeRTOS-Plus-TCP/source/FreeRTOS_IPv4_Sockets.o:(.debug_loclists)
    d48f     d48f      102     1         ./ra/aws/FreeRTOS/FreeRTOS-Plus/Source/FreeRTOS-Plus-TCP/source/FreeRTOS_IPv4_Utils.o:(.debug_loclists)
    d591     d591      47b     1         ./ra/aws/FreeRTOS/FreeRTOS-Plus/Source/FreeRTOS-Plus-TCP/source/FreeRTOS_Routing.o:(.debug_loclists)
    da0c     da0c     22a9     1         ./ra/aws/FreeRTOS/FreeRTOS-Plus/Source/FreeRTOS-Plus-TCP/source/FreeRTOS_Sockets.o:(.debug_loclists)
    fcb5     fcb5      4e1     1         ./ra/aws/FreeRTOS/FreeRTOS-Plus/Source/FreeRTOS-Plus-TCP/source/FreeRTOS_Stream_Buffer.o:(.debug_loclists)
   10196    10196      598     1         ./ra/aws/FreeRTOS/FreeRTOS-Plus/Source/FreeRTOS-Plus-TCP/source/FreeRTOS_TCP_IP.o:(.debug_loclists)
   1072e    1072e      31a     1         ./ra/aws/FreeRTOS/FreeRTOS-Plus/Source/FreeRTOS-Plus-TCP/source/FreeRTOS_TCP_Reception.o:(.debug_loclists)
   10a48    10a48      67e     1         ./ra/aws/FreeRTOS/FreeRTOS-Plus/Source/FreeRTOS-Plus-TCP/source/FreeRTOS_TCP_State_Handling.o:(.debug_loclists)
   110c6    110c6      10d     1         ./ra/aws/FreeRTOS/FreeRTOS-Plus/Source/FreeRTOS-Plus-TCP/source/FreeRTOS_TCP_State_Handling_IPv4.o:(.debug_loclists)
   111d3    111d3      806     1         ./ra/aws/FreeRTOS/FreeRTOS-Plus/Source/FreeRTOS-Plus-TCP/source/FreeRTOS_TCP_Transmission.o:(.debug_loclists)
   119d9    119d9      29d     1         ./ra/aws/FreeRTOS/FreeRTOS-Plus/Source/FreeRTOS-Plus-TCP/source/FreeRTOS_TCP_Transmission_IPv4.o:(.debug_loclists)
   11c76    11c76       3a     1         ./ra/aws/FreeRTOS/FreeRTOS-Plus/Source/FreeRTOS-Plus-TCP/source/FreeRTOS_TCP_Utils_IPv4.o:(.debug_loclists)
   11cb0    11cb0       c3     1         ./ra/aws/FreeRTOS/FreeRTOS-Plus/Source/FreeRTOS-Plus-TCP/source/FreeRTOS_TCP_WIN.o:(.debug_loclists)
   11d73    11d73      2cd     1         ./ra/aws/FreeRTOS/FreeRTOS-Plus/Source/FreeRTOS-Plus-TCP/source/FreeRTOS_Tiny_TCP.o:(.debug_loclists)
   12040    12040       96     1         ./ra/aws/FreeRTOS/FreeRTOS-Plus/Source/FreeRTOS-Plus-TCP/source/FreeRTOS_UDP_IP.o:(.debug_loclists)
   120d6    120d6      12c     1         ./ra/aws/FreeRTOS/FreeRTOS-Plus/Source/FreeRTOS-Plus-TCP/source/FreeRTOS_UDP_IPv4.o:(.debug_loclists)
   12202    12202       47     1         D:\Renesas\RA\e2studio_v2023-07_fsp_v4.6.0\toolchains\llvm_arm\LLVM-ET-Arm-18.1.3-Windows-x86_64\bin\..\lib\clang-runtimes/arm-none-eabi/armv7em_hard_fpv4_sp_d16_exn_rtti\lib\libc.a(libc_string_memcmp.c.o):(.debug_loclists)
   12249    12249       52     1         D:\Renesas\RA\e2studio_v2023-07_fsp_v4.6.0\toolchains\llvm_arm\LLVM-ET-Arm-18.1.3-Windows-x86_64\bin\..\lib\clang-runtimes/arm-none-eabi/armv7em_hard_fpv4_sp_d16_exn_rtti\lib\libc.a(libc_string_strchr.c.o):(.debug_loclists)
   1229b    1229b       57     1         D:\Renesas\RA\e2studio_v2023-07_fsp_v4.6.0\toolchains\llvm_arm\LLVM-ET-Arm-18.1.3-Windows-x86_64\bin\..\lib\clang-runtimes/arm-none-eabi/armv7em_hard_fpv4_sp_d16_exn_rtti\lib\libc.a(libc_string_strncpy.c.o):(.debug_loclists)
   122f2    122f2       2a     1         D:\Renesas\RA\e2studio_v2023-07_fsp_v4.6.0\toolchains\llvm_arm\LLVM-ET-Arm-18.1.3-Windows-x86_64\bin\..\lib\clang-runtimes/arm-none-eabi/armv7em_hard_fpv4_sp_d16_exn_rtti\lib\libc.a(libc_picolib_inittls.c.o):(.debug_loclists)
   1231c    1231c       4b     1         D:\Renesas\RA\e2studio_v2023-07_fsp_v4.6.0\toolchains\llvm_arm\LLVM-ET-Arm-18.1.3-Windows-x86_64\bin\..\lib\clang-runtimes/arm-none-eabi/armv7em_hard_fpv4_sp_d16_exn_rtti\lib\libc.a(libc_tinystdio_snprintf.c.o):(.debug_loclists)
   12367    12367      be9     1         D:\Renesas\RA\e2studio_v2023-07_fsp_v4.6.0\toolchains\llvm_arm\LLVM-ET-Arm-18.1.3-Windows-x86_64\bin\..\lib\clang-runtimes/arm-none-eabi/armv7em_hard_fpv4_sp_d16_exn_rtti\lib\libc.a(libc_tinystdio_vfprintf.c.o):(.debug_loclists)
   12f50    12f50      17a     1         D:\Renesas\RA\e2studio_v2023-07_fsp_v4.6.0\toolchains\llvm_arm\LLVM-ET-Arm-18.1.3-Windows-x86_64\bin\..\lib\clang-runtimes/arm-none-eabi/armv7em_hard_fpv4_sp_d16_exn_rtti\lib\libc.a(libc_tinystdio_dtox_engine.c.o):(.debug_loclists)
   130ca    130ca       25     1         D:\Renesas\RA\e2studio_v2023-07_fsp_v4.6.0\toolchains\llvm_arm\LLVM-ET-Arm-18.1.3-Windows-x86_64\bin\..\lib\clang-runtimes/arm-none-eabi/armv7em_hard_fpv4_sp_d16_exn_rtti\lib\libc.a(libc_string_strnlen.c.o):(.debug_loclists)
   130ef    130ef      c36     1         D:\Renesas\RA\e2studio_v2023-07_fsp_v4.6.0\toolchains\llvm_arm\LLVM-ET-Arm-18.1.3-Windows-x86_64\bin\..\lib\clang-runtimes/arm-none-eabi/armv7em_hard_fpv4_sp_d16_exn_rtti\lib\libc.a(libc_tinystdio_dtoa_ryu.c.o):(.debug_loclists)
   13d25    13d25       34     1         D:\Renesas\RA\e2studio_v2023-07_fsp_v4.6.0\toolchains\llvm_arm\LLVM-ET-Arm-18.1.3-Windows-x86_64\bin\..\lib\clang-runtimes/arm-none-eabi/armv7em_hard_fpv4_sp_d16_exn_rtti\lib\libc.a(libc_tinystdio_ryu_log10.c.o):(.debug_loclists)
   13d59    13d59       1e     1         D:\Renesas\RA\e2studio_v2023-07_fsp_v4.6.0\toolchains\llvm_arm\LLVM-ET-Arm-18.1.3-Windows-x86_64\bin\..\lib\clang-runtimes/arm-none-eabi/armv7em_hard_fpv4_sp_d16_exn_rtti\lib\libc.a(libc_tinystdio_ryu_pow5bits.c.o):(.debug_loclists)
   13d77    13d77      214     1         D:\Renesas\RA\e2studio_v2023-07_fsp_v4.6.0\toolchains\llvm_arm\LLVM-ET-Arm-18.1.3-Windows-x86_64\bin\..\lib\clang-runtimes/arm-none-eabi/armv7em_hard_fpv4_sp_d16_exn_rtti\lib\libc.a(libc_tinystdio_ryu_table.c.o):(.debug_loclists)
   13f8b    13f8b      24f     1         D:\Renesas\RA\e2studio_v2023-07_fsp_v4.6.0\toolchains\llvm_arm\LLVM-ET-Arm-18.1.3-Windows-x86_64\bin\..\lib\clang-runtimes/arm-none-eabi/armv7em_hard_fpv4_sp_d16_exn_rtti\lib\libc.a(libc_tinystdio_ryu_umul128.c.o):(.debug_loclists)
   141da    141da       2f     1         D:\Renesas\RA\e2studio_v2023-07_fsp_v4.6.0\toolchains\llvm_arm\LLVM-ET-Arm-18.1.3-Windows-x86_64\bin\..\lib\clang-runtimes/arm-none-eabi/armv7em_hard_fpv4_sp_d16_exn_rtti\lib\libc.a(aeabi_memset.c.o):(.debug_loclists)
   14209    14209       1b     1         D:\Renesas\RA\e2studio_v2023-07_fsp_v4.6.0\toolchains\llvm_arm\LLVM-ET-Arm-18.1.3-Windows-x86_64\bin\..\lib\clang-runtimes/arm-none-eabi/armv7em_hard_fpv4_sp_d16_exn_rtti\lib\libc.a(bzero.c.o):(.debug_loclists)
   14224    14224       5f     1         D:\Renesas\RA\e2studio_v2023-07_fsp_v4.6.0\toolchains\llvm_arm\LLVM-ET-Arm-18.1.3-Windows-x86_64\bin\..\lib\clang-runtimes/arm-none-eabi/armv7em_hard_fpv4_sp_d16_exn_rtti\lib\libc.a(memcpy.c.o):(.debug_loclists)
   14283    14283       83     1         D:\Renesas\RA\e2studio_v2023-07_fsp_v4.6.0\toolchains\llvm_arm\LLVM-ET-Arm-18.1.3-Windows-x86_64\bin\..\lib\clang-runtimes/arm-none-eabi/armv7em_hard_fpv4_sp_d16_exn_rtti\lib\libc.a(memmove.c.o):(.debug_loclists)
   14306    14306       3e     1         D:\Renesas\RA\e2studio_v2023-07_fsp_v4.6.0\toolchains\llvm_arm\LLVM-ET-Arm-18.1.3-Windows-x86_64\bin\..\lib\clang-runtimes/arm-none-eabi/armv7em_hard_fpv4_sp_d16_exn_rtti\lib\libc.a(memset.c.o):(.debug_loclists)
       0        0     98e5     1 .debug_abbrev
       0        0      221     1         ./src/SEGGER_RTT/SEGGER_RTT.o:(.debug_abbrev)
     221      221      1e5     1         ./src/SEGGER_RTT/SEGGER_RTT_printf.o:(.debug_abbrev)
     406      406      106     1         ./src/hal_warmstart.o:(.debug_abbrev)
     50c      50c      2b8     1         ./src/new_thread0_entry.o:(.debug_abbrev)
     7c4      7c4      19b     1         ./ra_gen/common_data.o:(.debug_abbrev)
     95f      95f       4d     1         ./ra_gen/hal_data.o:(.debug_abbrev)
     9ac      9ac      123     1         ./ra_gen/main.o:(.debug_abbrev)
     acf      acf      159     1         ./ra_gen/new_thread0.o:(.debug_abbrev)
     c28      c28       e6     1         ./ra_gen/pin_data.o:(.debug_abbrev)
     d0e      d0e       a8     1         ./ra_gen/vector_data.o:(.debug_abbrev)
     db6      db6      35a     1         ./ra/fsp/src/rm_freertos_port/port.o:(.debug_abbrev)
    1110     1110      2f5     1         ./ra/fsp/src/rm_freertos_plus_tcp/NetworkInterface.o:(.debug_abbrev)
    1405     1405      337     1         ./ra/fsp/src/r_ioport/r_ioport.o:(.debug_abbrev)
    173c     173c      2a9     1         ./ra/fsp/src/r_ether_phy/r_ether_phy.o:(.debug_abbrev)
    19e5     19e5      3ea     1         ./ra/fsp/src/r_ether/r_ether.o:(.debug_abbrev)
    1dcf     1dcf       a2     1         ./ra/fsp/src/bsp/mcu/ra6m2/bsp_linker.o:(.debug_abbrev)
    1e71     1e71      332     1         ./ra/fsp/src/bsp/mcu/all/bsp_clocks.o:(.debug_abbrev)
    21a3     21a3      149     1         ./ra/fsp/src/bsp/mcu/all/bsp_common.o:(.debug_abbrev)
    22ec     22ec       ad     1         ./ra/fsp/src/bsp/mcu/all/bsp_delay.o:(.debug_abbrev)
    2399     2399      1ff     1         ./ra/fsp/src/bsp/mcu/all/bsp_group_irq.o:(.debug_abbrev)
    2598     2598       44     1         ./ra/fsp/src/bsp/mcu/all/bsp_io.o:(.debug_abbrev)
    25dc     25dc      171     1         ./ra/fsp/src/bsp/mcu/all/bsp_irq.o:(.debug_abbrev)
    274d     274d      221     1         ./ra/fsp/src/bsp/mcu/all/bsp_register_protection.o:(.debug_abbrev)
    296e     296e       85     1         ./ra/fsp/src/bsp/mcu/all/bsp_sbrk.o:(.debug_abbrev)
    29f3     29f3      1cf     1         ./ra/fsp/src/bsp/mcu/all/bsp_sdram.o:(.debug_abbrev)
    2bc2     2bc2       a7     1         ./ra/fsp/src/bsp/cmsis/Device/RENESAS/Source/startup.o:(.debug_abbrev)
    2c69     2c69      1e1     1         ./ra/fsp/src/bsp/cmsis/Device/RENESAS/Source/system.o:(.debug_abbrev)
    2e4a     2e4a      202     1         ./ra/aws/FreeRTOS/FreeRTOS/Source/portable/MemMang/heap_4.o:(.debug_abbrev)
    304c     304c      257     1         ./ra/aws/FreeRTOS/FreeRTOS/Source/event_groups.o:(.debug_abbrev)
    32a3     32a3       c1     1         ./ra/aws/FreeRTOS/FreeRTOS/Source/list.o:(.debug_abbrev)
    3364     3364      2a7     1         ./ra/aws/FreeRTOS/FreeRTOS/Source/queue.o:(.debug_abbrev)
    360b     360b      274     1         ./ra/aws/FreeRTOS/FreeRTOS/Source/stream_buffer.o:(.debug_abbrev)
    387f     387f      357     1         ./ra/aws/FreeRTOS/FreeRTOS/Source/tasks.o:(.debug_abbrev)
    3bd6     3bd6      2fa     1         ./ra/aws/FreeRTOS/FreeRTOS/Source/timers.o:(.debug_abbrev)
    3ed0     3ed0      2e2     1         ./ra/aws/FreeRTOS/FreeRTOS-Plus/Source/FreeRTOS-Plus-TCP/source/portable/BufferManagement/BufferAllocation_2.o:(.debug_abbrev)
    41b2     41b2      338     1         ./ra/aws/FreeRTOS/FreeRTOS-Plus/Source/FreeRTOS-Plus-TCP/source/FreeRTOS_ARP.o:(.debug_abbrev)
    44ea     44ea      1d4     1         ./ra/aws/FreeRTOS/FreeRTOS-Plus/Source/FreeRTOS-Plus-TCP/source/FreeRTOS_BitConfig.o:(.debug_abbrev)
    46be     46be      3fd     1         ./ra/aws/FreeRTOS/FreeRTOS-Plus/Source/FreeRTOS-Plus-TCP/source/FreeRTOS_DNS.o:(.debug_abbrev)
    4abb     4abb      276     1         ./ra/aws/FreeRTOS/FreeRTOS-Plus/Source/FreeRTOS-Plus-TCP/source/FreeRTOS_DNS_Cache.o:(.debug_abbrev)
    4d31     4d31      247     1         ./ra/aws/FreeRTOS/FreeRTOS-Plus/Source/FreeRTOS-Plus-TCP/source/FreeRTOS_DNS_Networking.o:(.debug_abbrev)
    4f78     4f78      1d5     1         ./ra/aws/FreeRTOS/FreeRTOS-Plus/Source/FreeRTOS-Plus-TCP/source/FreeRTOS_DNS_Parser.o:(.debug_abbrev)
    514d     514d      18a     1         ./ra/aws/FreeRTOS/FreeRTOS-Plus/Source/FreeRTOS-Plus-TCP/source/FreeRTOS_ICMP.o:(.debug_abbrev)
    52d7     52d7      4c6     1         ./ra/aws/FreeRTOS/FreeRTOS-Plus/Source/FreeRTOS-Plus-TCP/source/FreeRTOS_IP.o:(.debug_abbrev)
    579d     579d      241     1         ./ra/aws/FreeRTOS/FreeRTOS-Plus/Source/FreeRTOS-Plus-TCP/source/FreeRTOS_IP_Timers.o:(.debug_abbrev)
    59de     59de      31f     1         ./ra/aws/FreeRTOS/FreeRTOS-Plus/Source/FreeRTOS-Plus-TCP/source/FreeRTOS_IP_Utils.o:(.debug_abbrev)
    5cfd     5cfd      1f2     1         ./ra/aws/FreeRTOS/FreeRTOS-Plus/Source/FreeRTOS-Plus-TCP/source/FreeRTOS_IPv4.o:(.debug_abbrev)
    5eef     5eef      19a     1         ./ra/aws/FreeRTOS/FreeRTOS-Plus/Source/FreeRTOS-Plus-TCP/source/FreeRTOS_IPv4_Sockets.o:(.debug_abbrev)
    6089     6089       fc     1         ./ra/aws/FreeRTOS/FreeRTOS-Plus/Source/FreeRTOS-Plus-TCP/source/FreeRTOS_IPv4_Utils.o:(.debug_abbrev)
    6185     6185      423     1         ./ra/aws/FreeRTOS/FreeRTOS-Plus/Source/FreeRTOS-Plus-TCP/source/FreeRTOS_Routing.o:(.debug_abbrev)
    65a8     65a8      42d     1         ./ra/aws/FreeRTOS/FreeRTOS-Plus/Source/FreeRTOS-Plus-TCP/source/FreeRTOS_Sockets.o:(.debug_abbrev)
    69d5     69d5      1eb     1         ./ra/aws/FreeRTOS/FreeRTOS-Plus/Source/FreeRTOS-Plus-TCP/source/FreeRTOS_Stream_Buffer.o:(.debug_abbrev)
    6bc0     6bc0      3a7     1         ./ra/aws/FreeRTOS/FreeRTOS-Plus/Source/FreeRTOS-Plus-TCP/source/FreeRTOS_TCP_IP.o:(.debug_abbrev)
    6f67     6f67      2f6     1         ./ra/aws/FreeRTOS/FreeRTOS-Plus/Source/FreeRTOS-Plus-TCP/source/FreeRTOS_TCP_Reception.o:(.debug_abbrev)
    725d     725d      35d     1         ./ra/aws/FreeRTOS/FreeRTOS-Plus/Source/FreeRTOS-Plus-TCP/source/FreeRTOS_TCP_State_Handling.o:(.debug_abbrev)
    75ba     75ba      205     1         ./ra/aws/FreeRTOS/FreeRTOS-Plus/Source/FreeRTOS-Plus-TCP/source/FreeRTOS_TCP_State_Handling_IPv4.o:(.debug_abbrev)
    77bf     77bf      402     1         ./ra/aws/FreeRTOS/FreeRTOS-Plus/Source/FreeRTOS-Plus-TCP/source/FreeRTOS_TCP_Transmission.o:(.debug_abbrev)
    7bc1     7bc1      2d9     1         ./ra/aws/FreeRTOS/FreeRTOS-Plus/Source/FreeRTOS-Plus-TCP/source/FreeRTOS_TCP_Transmission_IPv4.o:(.debug_abbrev)
    7e9a     7e9a      1b3     1         ./ra/aws/FreeRTOS/FreeRTOS-Plus/Source/FreeRTOS-Plus-TCP/source/FreeRTOS_TCP_Utils.o:(.debug_abbrev)
    804d     804d      1b6     1         ./ra/aws/FreeRTOS/FreeRTOS-Plus/Source/FreeRTOS-Plus-TCP/source/FreeRTOS_TCP_Utils_IPv4.o:(.debug_abbrev)
    8203     8203      140     1         ./ra/aws/FreeRTOS/FreeRTOS-Plus/Source/FreeRTOS-Plus-TCP/source/FreeRTOS_TCP_WIN.o:(.debug_abbrev)
    8343     8343      1ec     1         ./ra/aws/FreeRTOS/FreeRTOS-Plus/Source/FreeRTOS-Plus-TCP/source/FreeRTOS_Tiny_TCP.o:(.debug_abbrev)
    852f     852f      172     1         ./ra/aws/FreeRTOS/FreeRTOS-Plus/Source/FreeRTOS-Plus-TCP/source/FreeRTOS_UDP_IP.o:(.debug_abbrev)
    86a1     86a1      290     1         ./ra/aws/FreeRTOS/FreeRTOS-Plus/Source/FreeRTOS-Plus-TCP/source/FreeRTOS_UDP_IPv4.o:(.debug_abbrev)
    8931     8931       2e     1         D:\Renesas\RA\e2studio_v2023-07_fsp_v4.6.0\toolchains\llvm_arm\LLVM-ET-Arm-18.1.3-Windows-x86_64\bin\..\lib\clang-runtimes/arm-none-eabi/armv7em_hard_fpv4_sp_d16_exn_rtti\lib\libc.a(libc_errno_errno.c.o):(.debug_abbrev)
    895f     895f       5c     1         D:\Renesas\RA\e2studio_v2023-07_fsp_v4.6.0\toolchains\llvm_arm\LLVM-ET-Arm-18.1.3-Windows-x86_64\bin\..\lib\clang-runtimes/arm-none-eabi/armv7em_hard_fpv4_sp_d16_exn_rtti\lib\libc.a(libc_stdlib_rand.c.o):(.debug_abbrev)
    89bb     89bb       4d     1         D:\Renesas\RA\e2studio_v2023-07_fsp_v4.6.0\toolchains\llvm_arm\LLVM-ET-Arm-18.1.3-Windows-x86_64\bin\..\lib\clang-runtimes/arm-none-eabi/armv7em_hard_fpv4_sp_d16_exn_rtti\lib\libc.a(libc_stdlib_random.c.o):(.debug_abbrev)
    8a08     8a08       94     1         D:\Renesas\RA\e2studio_v2023-07_fsp_v4.6.0\toolchains\llvm_arm\LLVM-ET-Arm-18.1.3-Windows-x86_64\bin\..\lib\clang-runtimes/arm-none-eabi/armv7em_hard_fpv4_sp_d16_exn_rtti\lib\libc.a(libc_string_memcmp.c.o):(.debug_abbrev)
    8a9c     8a9c       6b     1         D:\Renesas\RA\e2studio_v2023-07_fsp_v4.6.0\toolchains\llvm_arm\LLVM-ET-Arm-18.1.3-Windows-x86_64\bin\..\lib\clang-runtimes/arm-none-eabi/armv7em_hard_fpv4_sp_d16_exn_rtti\lib\libc.a(libc_string_strchr.c.o):(.debug_abbrev)
    8b07     8b07       9d     1         D:\Renesas\RA\e2studio_v2023-07_fsp_v4.6.0\toolchains\llvm_arm\LLVM-ET-Arm-18.1.3-Windows-x86_64\bin\..\lib\clang-runtimes/arm-none-eabi/armv7em_hard_fpv4_sp_d16_exn_rtti\lib\libc.a(libc_string_strncpy.c.o):(.debug_abbrev)
    8ba4     8ba4       74     1         D:\Renesas\RA\e2studio_v2023-07_fsp_v4.6.0\toolchains\llvm_arm\LLVM-ET-Arm-18.1.3-Windows-x86_64\bin\..\lib\clang-runtimes/arm-none-eabi/armv7em_hard_fpv4_sp_d16_exn_rtti\lib\libc.a(libc_picolib_inittls.c.o):(.debug_abbrev)
    8c18     8c18       62     1         D:\Renesas\RA\e2studio_v2023-07_fsp_v4.6.0\toolchains\llvm_arm\LLVM-ET-Arm-18.1.3-Windows-x86_64\bin\..\lib\clang-runtimes/arm-none-eabi/armv7em_hard_fpv4_sp_d16_exn_rtti\lib\libc.a(libc_picolib_machine_arm_tls.c.o):(.debug_abbrev)
    8c7a     8c7a       21     1         D:\Renesas\RA\e2studio_v2023-07_fsp_v4.6.0\toolchains\llvm_arm\LLVM-ET-Arm-18.1.3-Windows-x86_64\bin\..\lib\clang-runtimes/arm-none-eabi/armv7em_hard_fpv4_sp_d16_exn_rtti\lib\libc.a(libc_picolib_machine_arm_read_tp.S.o):(.debug_abbrev)
    8c9b     8c9b       cf     1         D:\Renesas\RA\e2studio_v2023-07_fsp_v4.6.0\toolchains\llvm_arm\LLVM-ET-Arm-18.1.3-Windows-x86_64\bin\..\lib\clang-runtimes/arm-none-eabi/armv7em_hard_fpv4_sp_d16_exn_rtti\lib\libc.a(libc_tinystdio_snprintf.c.o):(.debug_abbrev)
    8d6a     8d6a       9a     1         D:\Renesas\RA\e2studio_v2023-07_fsp_v4.6.0\toolchains\llvm_arm\LLVM-ET-Arm-18.1.3-Windows-x86_64\bin\..\lib\clang-runtimes/arm-none-eabi/armv7em_hard_fpv4_sp_d16_exn_rtti\lib\libc.a(libc_tinystdio_filestrput.c.o):(.debug_abbrev)
    8e04     8e04      1d2     1         D:\Renesas\RA\e2studio_v2023-07_fsp_v4.6.0\toolchains\llvm_arm\LLVM-ET-Arm-18.1.3-Windows-x86_64\bin\..\lib\clang-runtimes/arm-none-eabi/armv7em_hard_fpv4_sp_d16_exn_rtti\lib\libc.a(libc_tinystdio_vfprintf.c.o):(.debug_abbrev)
    8fd6     8fd6      10b     1         D:\Renesas\RA\e2studio_v2023-07_fsp_v4.6.0\toolchains\llvm_arm\LLVM-ET-Arm-18.1.3-Windows-x86_64\bin\..\lib\clang-runtimes/arm-none-eabi/armv7em_hard_fpv4_sp_d16_exn_rtti\lib\libc.a(libc_tinystdio_dtox_engine.c.o):(.debug_abbrev)
    90e1     90e1       87     1         D:\Renesas\RA\e2studio_v2023-07_fsp_v4.6.0\toolchains\llvm_arm\LLVM-ET-Arm-18.1.3-Windows-x86_64\bin\..\lib\clang-runtimes/arm-none-eabi/armv7em_hard_fpv4_sp_d16_exn_rtti\lib\libc.a(libc_string_strnlen.c.o):(.debug_abbrev)
    9168     9168      208     1         D:\Renesas\RA\e2studio_v2023-07_fsp_v4.6.0\toolchains\llvm_arm\LLVM-ET-Arm-18.1.3-Windows-x86_64\bin\..\lib\clang-runtimes/arm-none-eabi/armv7em_hard_fpv4_sp_d16_exn_rtti\lib\libc.a(libc_tinystdio_dtoa_ryu.c.o):(.debug_abbrev)
    9370     9370       64     1         D:\Renesas\RA\e2studio_v2023-07_fsp_v4.6.0\toolchains\llvm_arm\LLVM-ET-Arm-18.1.3-Windows-x86_64\bin\..\lib\clang-runtimes/arm-none-eabi/armv7em_hard_fpv4_sp_d16_exn_rtti\lib\libc.a(libc_tinystdio_ryu_log10.c.o):(.debug_abbrev)
    93d4     93d4       62     1         D:\Renesas\RA\e2studio_v2023-07_fsp_v4.6.0\toolchains\llvm_arm\LLVM-ET-Arm-18.1.3-Windows-x86_64\bin\..\lib\clang-runtimes/arm-none-eabi/armv7em_hard_fpv4_sp_d16_exn_rtti\lib\libc.a(libc_tinystdio_ryu_pow5bits.c.o):(.debug_abbrev)
    9436     9436       f9     1         D:\Renesas\RA\e2studio_v2023-07_fsp_v4.6.0\toolchains\llvm_arm\LLVM-ET-Arm-18.1.3-Windows-x86_64\bin\..\lib\clang-runtimes/arm-none-eabi/armv7em_hard_fpv4_sp_d16_exn_rtti\lib\libc.a(libc_tinystdio_ryu_table.c.o):(.debug_abbrev)
    952f     952f       96     1         D:\Renesas\RA\e2studio_v2023-07_fsp_v4.6.0\toolchains\llvm_arm\LLVM-ET-Arm-18.1.3-Windows-x86_64\bin\..\lib\clang-runtimes/arm-none-eabi/armv7em_hard_fpv4_sp_d16_exn_rtti\lib\libc.a(libc_tinystdio_ryu_umul128.c.o):(.debug_abbrev)
    95c5     95c5       21     1         D:\Renesas\RA\e2studio_v2023-07_fsp_v4.6.0\toolchains\llvm_arm\LLVM-ET-Arm-18.1.3-Windows-x86_64\bin\..\lib\clang-runtimes/arm-none-eabi/armv7em_hard_fpv4_sp_d16_exn_rtti\lib\libc.a(strcmp.S.o):(.debug_abbrev)
    95e6     95e6       94     1         D:\Renesas\RA\e2studio_v2023-07_fsp_v4.6.0\toolchains\llvm_arm\LLVM-ET-Arm-18.1.3-Windows-x86_64\bin\..\lib\clang-runtimes/arm-none-eabi/armv7em_hard_fpv4_sp_d16_exn_rtti\lib\libc.a(aeabi_memset.c.o):(.debug_abbrev)
    967a     967a       94     1         D:\Renesas\RA\e2studio_v2023-07_fsp_v4.6.0\toolchains\llvm_arm\LLVM-ET-Arm-18.1.3-Windows-x86_64\bin\..\lib\clang-runtimes/arm-none-eabi/armv7em_hard_fpv4_sp_d16_exn_rtti\lib\libc.a(bzero.c.o):(.debug_abbrev)
    970e     970e       a0     1         D:\Renesas\RA\e2studio_v2023-07_fsp_v4.6.0\toolchains\llvm_arm\LLVM-ET-Arm-18.1.3-Windows-x86_64\bin\..\lib\clang-runtimes/arm-none-eabi/armv7em_hard_fpv4_sp_d16_exn_rtti\lib\libc.a(memcpy.c.o):(.debug_abbrev)
    97ae     97ae       91     1         D:\Renesas\RA\e2studio_v2023-07_fsp_v4.6.0\toolchains\llvm_arm\LLVM-ET-Arm-18.1.3-Windows-x86_64\bin\..\lib\clang-runtimes/arm-none-eabi/armv7em_hard_fpv4_sp_d16_exn_rtti\lib\libc.a(memmove.c.o):(.debug_abbrev)
    983f     983f       85     1         D:\Renesas\RA\e2studio_v2023-07_fsp_v4.6.0\toolchains\llvm_arm\LLVM-ET-Arm-18.1.3-Windows-x86_64\bin\..\lib\clang-runtimes/arm-none-eabi/armv7em_hard_fpv4_sp_d16_exn_rtti\lib\libc.a(memset.c.o):(.debug_abbrev)
    98c4     98c4       21     1         D:\Renesas\RA\e2studio_v2023-07_fsp_v4.6.0\toolchains\llvm_arm\LLVM-ET-Arm-18.1.3-Windows-x86_64\bin\..\lib\clang-runtimes/arm-none-eabi/armv7em_hard_fpv4_sp_d16_exn_rtti\lib\libc.a(strlen.S.o):(.debug_abbrev)
       0        0    44fe2     1 .debug_info
       0        0     15c9     1         ./src/SEGGER_RTT/SEGGER_RTT.o:(.debug_info)
    15c9     15c9      450     1         ./src/SEGGER_RTT/SEGGER_RTT_printf.o:(.debug_info)
    1a19     1a19      9f5     1         ./src/hal_warmstart.o:(.debug_info)
    240e     240e     181e     1         ./src/new_thread0_entry.o:(.debug_info)
    3c2c     3c2c     16e8     1         ./ra_gen/common_data.o:(.debug_info)
    5314     5314       3a     1         ./ra_gen/hal_data.o:(.debug_info)
    534e     534e      382     1         ./ra_gen/main.o:(.debug_info)
    56d0     56d0      224     1         ./ra_gen/new_thread0.o:(.debug_info)
    58f4     58f4      49b     1         ./ra_gen/pin_data.o:(.debug_info)
    5d8f     5d8f      57b     1         ./ra_gen/vector_data.o:(.debug_info)
    630a     630a     36d9     1         ./ra/fsp/src/rm_freertos_port/port.o:(.debug_info)
    99e3     99e3     1629     1         ./ra/fsp/src/rm_freertos_plus_tcp/NetworkInterface.o:(.debug_info)
    b00c     b00c     5e06     1         ./ra/fsp/src/r_ioport/r_ioport.o:(.debug_info)
   10e12    10e12     16e9     1         ./ra/fsp/src/r_ether_phy/r_ether_phy.o:(.debug_info)
   124fb    124fb     3cff     1         ./ra/fsp/src/r_ether/r_ether.o:(.debug_info)
   161fa    161fa      187     1         ./ra/fsp/src/bsp/mcu/ra6m2/bsp_linker.o:(.debug_info)
   16381    16381     46de     1         ./ra/fsp/src/bsp/mcu/all/bsp_clocks.o:(.debug_info)
   1aa5f    1aa5f      596     1         ./ra/fsp/src/bsp/mcu/all/bsp_common.o:(.debug_info)
   1aff5    1aff5      104     1         ./ra/fsp/src/bsp/mcu/all/bsp_delay.o:(.debug_info)
   1b0f9    1b0f9      db4     1         ./ra/fsp/src/bsp/mcu/all/bsp_group_irq.o:(.debug_info)
   1bead    1bead       43     1         ./ra/fsp/src/bsp/mcu/all/bsp_io.o:(.debug_info)
   1bef0    1bef0      e0c     1         ./ra/fsp/src/bsp/mcu/all/bsp_irq.o:(.debug_info)
   1ccfc    1ccfc     2ec3     1         ./ra/fsp/src/bsp/mcu/all/bsp_register_protection.o:(.debug_info)
   1fbbf    1fbbf       90     1         ./ra/fsp/src/bsp/mcu/all/bsp_sbrk.o:(.debug_info)
   1fc4f    1fc4f     46a9     1         ./ra/fsp/src/bsp/mcu/all/bsp_sdram.o:(.debug_info)
   242f8    242f8       b2     1         ./ra/fsp/src/bsp/cmsis/Device/RENESAS/Source/startup.o:(.debug_info)
   243aa    243aa      bce     1         ./ra/fsp/src/bsp/cmsis/Device/RENESAS/Source/system.o:(.debug_info)
   24f78    24f78      44d     1         ./ra/aws/FreeRTOS/FreeRTOS/Source/portable/MemMang/heap_4.o:(.debug_info)
   253c5    253c5      93f     1         ./ra/aws/FreeRTOS/FreeRTOS/Source/event_groups.o:(.debug_info)
   25d04    25d04      1ac     1         ./ra/aws/FreeRTOS/FreeRTOS/Source/list.o:(.debug_info)
   25eb0    25eb0     1455     1         ./ra/aws/FreeRTOS/FreeRTOS/Source/queue.o:(.debug_info)
   27305    27305     11f2     1         ./ra/aws/FreeRTOS/FreeRTOS/Source/stream_buffer.o:(.debug_info)
   284f7    284f7     1e56     1         ./ra/aws/FreeRTOS/FreeRTOS/Source/tasks.o:(.debug_info)
   2a34d    2a34d     1062     1         ./ra/aws/FreeRTOS/FreeRTOS/Source/timers.o:(.debug_info)
   2b3af    2b3af      93a     1         ./ra/aws/FreeRTOS/FreeRTOS-Plus/Source/FreeRTOS-Plus-TCP/source/portable/BufferManagement/BufferAllocation_2.o:(.debug_info)
   2bce9    2bce9      f76     1         ./ra/aws/FreeRTOS/FreeRTOS-Plus/Source/FreeRTOS-Plus-TCP/source/FreeRTOS_ARP.o:(.debug_info)
   2cc5f    2cc5f      456     1         ./ra/aws/FreeRTOS/FreeRTOS-Plus/Source/FreeRTOS-Plus-TCP/source/FreeRTOS_BitConfig.o:(.debug_info)
   2d0b5    2d0b5     155c     1         ./ra/aws/FreeRTOS/FreeRTOS-Plus/Source/FreeRTOS-Plus-TCP/source/FreeRTOS_DNS.o:(.debug_info)
   2e611    2e611      670     1         ./ra/aws/FreeRTOS/FreeRTOS-Plus/Source/FreeRTOS-Plus-TCP/source/FreeRTOS_DNS_Cache.o:(.debug_info)
   2ec81    2ec81      c3c     1         ./ra/aws/FreeRTOS/FreeRTOS-Plus/Source/FreeRTOS-Plus-TCP/source/FreeRTOS_DNS_Networking.o:(.debug_info)
   2f8bd    2f8bd      621     1         ./ra/aws/FreeRTOS/FreeRTOS-Plus/Source/FreeRTOS-Plus-TCP/source/FreeRTOS_DNS_Parser.o:(.debug_info)
   2fede    2fede      70a     1         ./ra/aws/FreeRTOS/FreeRTOS-Plus/Source/FreeRTOS-Plus-TCP/source/FreeRTOS_ICMP.o:(.debug_info)
   305e8    305e8     1f74     1         ./ra/aws/FreeRTOS/FreeRTOS-Plus/Source/FreeRTOS-Plus-TCP/source/FreeRTOS_IP.o:(.debug_info)
   3255c    3255c      988     1         ./ra/aws/FreeRTOS/FreeRTOS-Plus/Source/FreeRTOS-Plus-TCP/source/FreeRTOS_IP_Timers.o:(.debug_info)
   32ee4    32ee4     1061     1         ./ra/aws/FreeRTOS/FreeRTOS-Plus/Source/FreeRTOS-Plus-TCP/source/FreeRTOS_IP_Utils.o:(.debug_info)
   33f45    33f45      a32     1         ./ra/aws/FreeRTOS/FreeRTOS-Plus/Source/FreeRTOS-Plus-TCP/source/FreeRTOS_IPv4.o:(.debug_info)
   34977    34977      712     1         ./ra/aws/FreeRTOS/FreeRTOS-Plus/Source/FreeRTOS-Plus-TCP/source/FreeRTOS_IPv4_Sockets.o:(.debug_info)
   35089    35089      3d7     1         ./ra/aws/FreeRTOS/FreeRTOS-Plus/Source/FreeRTOS-Plus-TCP/source/FreeRTOS_IPv4_Utils.o:(.debug_info)
   35460    35460     1323     1         ./ra/aws/FreeRTOS/FreeRTOS-Plus/Source/FreeRTOS-Plus-TCP/source/FreeRTOS_Routing.o:(.debug_info)
   36783    36783     2d7a     1         ./ra/aws/FreeRTOS/FreeRTOS-Plus/Source/FreeRTOS-Plus-TCP/source/FreeRTOS_Sockets.o:(.debug_info)
   394fd    394fd      5ef     1         ./ra/aws/FreeRTOS/FreeRTOS-Plus/Source/FreeRTOS-Plus-TCP/source/FreeRTOS_Stream_Buffer.o:(.debug_info)
   39aec    39aec     119f     1         ./ra/aws/FreeRTOS/FreeRTOS-Plus/Source/FreeRTOS-Plus-TCP/source/FreeRTOS_TCP_IP.o:(.debug_info)
   3ac8b    3ac8b      f96     1         ./ra/aws/FreeRTOS/FreeRTOS-Plus/Source/FreeRTOS-Plus-TCP/source/FreeRTOS_TCP_Reception.o:(.debug_info)
   3bc21    3bc21     10af     1         ./ra/aws/FreeRTOS/FreeRTOS-Plus/Source/FreeRTOS-Plus-TCP/source/FreeRTOS_TCP_State_Handling.o:(.debug_info)
   3ccd0    3ccd0      d98     1         ./ra/aws/FreeRTOS/FreeRTOS-Plus/Source/FreeRTOS-Plus-TCP/source/FreeRTOS_TCP_State_Handling_IPv4.o:(.debug_info)
   3da68    3da68     14d3     1         ./ra/aws/FreeRTOS/FreeRTOS-Plus/Source/FreeRTOS-Plus-TCP/source/FreeRTOS_TCP_Transmission.o:(.debug_info)
   3ef3b    3ef3b      f68     1         ./ra/aws/FreeRTOS/FreeRTOS-Plus/Source/FreeRTOS-Plus-TCP/source/FreeRTOS_TCP_Transmission_IPv4.o:(.debug_info)
   3fea3    3fea3      aa1     1         ./ra/aws/FreeRTOS/FreeRTOS-Plus/Source/FreeRTOS-Plus-TCP/source/FreeRTOS_TCP_Utils.o:(.debug_info)
   40944    40944      ab9     1         ./ra/aws/FreeRTOS/FreeRTOS-Plus/Source/FreeRTOS-Plus-TCP/source/FreeRTOS_TCP_Utils_IPv4.o:(.debug_info)
   413fd    413fd      3a2     1         ./ra/aws/FreeRTOS/FreeRTOS-Plus/Source/FreeRTOS-Plus-TCP/source/FreeRTOS_TCP_WIN.o:(.debug_info)
   4179f    4179f      575     1         ./ra/aws/FreeRTOS/FreeRTOS-Plus/Source/FreeRTOS-Plus-TCP/source/FreeRTOS_Tiny_TCP.o:(.debug_info)
   41d14    41d14      67b     1         ./ra/aws/FreeRTOS/FreeRTOS-Plus/Source/FreeRTOS-Plus-TCP/source/FreeRTOS_UDP_IP.o:(.debug_info)
   4238f    4238f      d85     1         ./ra/aws/FreeRTOS/FreeRTOS-Plus/Source/FreeRTOS-Plus-TCP/source/FreeRTOS_UDP_IPv4.o:(.debug_info)
   43114    43114       2e     1         D:\Renesas\RA\e2studio_v2023-07_fsp_v4.6.0\toolchains\llvm_arm\LLVM-ET-Arm-18.1.3-Windows-x86_64\bin\..\lib\clang-runtimes/arm-none-eabi/armv7em_hard_fpv4_sp_d16_exn_rtti\lib\libc.a(libc_errno_errno.c.o):(.debug_info)
   43142    43142       4b     1         D:\Renesas\RA\e2studio_v2023-07_fsp_v4.6.0\toolchains\llvm_arm\LLVM-ET-Arm-18.1.3-Windows-x86_64\bin\..\lib\clang-runtimes/arm-none-eabi/armv7em_hard_fpv4_sp_d16_exn_rtti\lib\libc.a(libc_stdlib_rand.c.o):(.debug_info)
   4318d    4318d       4a     1         D:\Renesas\RA\e2studio_v2023-07_fsp_v4.6.0\toolchains\llvm_arm\LLVM-ET-Arm-18.1.3-Windows-x86_64\bin\..\lib\clang-runtimes/arm-none-eabi/armv7em_hard_fpv4_sp_d16_exn_rtti\lib\libc.a(libc_stdlib_random.c.o):(.debug_info)
   431d7    431d7       86     1         D:\Renesas\RA\e2studio_v2023-07_fsp_v4.6.0\toolchains\llvm_arm\LLVM-ET-Arm-18.1.3-Windows-x86_64\bin\..\lib\clang-runtimes/arm-none-eabi/armv7em_hard_fpv4_sp_d16_exn_rtti\lib\libc.a(libc_string_memcmp.c.o):(.debug_info)
   4325d    4325d       81     1         D:\Renesas\RA\e2studio_v2023-07_fsp_v4.6.0\toolchains\llvm_arm\LLVM-ET-Arm-18.1.3-Windows-x86_64\bin\..\lib\clang-runtimes/arm-none-eabi/armv7em_hard_fpv4_sp_d16_exn_rtti\lib\libc.a(libc_string_strchr.c.o):(.debug_info)
   432de    432de       90     1         D:\Renesas\RA\e2studio_v2023-07_fsp_v4.6.0\toolchains\llvm_arm\LLVM-ET-Arm-18.1.3-Windows-x86_64\bin\..\lib\clang-runtimes/arm-none-eabi/armv7em_hard_fpv4_sp_d16_exn_rtti\lib\libc.a(libc_string_strncpy.c.o):(.debug_info)
   4336e    4336e       64     1         D:\Renesas\RA\e2studio_v2023-07_fsp_v4.6.0\toolchains\llvm_arm\LLVM-ET-Arm-18.1.3-Windows-x86_64\bin\..\lib\clang-runtimes/arm-none-eabi/armv7em_hard_fpv4_sp_d16_exn_rtti\lib\libc.a(libc_picolib_inittls.c.o):(.debug_info)
   433d2    433d2       60     1         D:\Renesas\RA\e2studio_v2023-07_fsp_v4.6.0\toolchains\llvm_arm\LLVM-ET-Arm-18.1.3-Windows-x86_64\bin\..\lib\clang-runtimes/arm-none-eabi/armv7em_hard_fpv4_sp_d16_exn_rtti\lib\libc.a(libc_picolib_machine_arm_tls.c.o):(.debug_info)
   43432    43432      133     1         D:\Renesas\RA\e2studio_v2023-07_fsp_v4.6.0\toolchains\llvm_arm\LLVM-ET-Arm-18.1.3-Windows-x86_64\bin\..\lib\clang-runtimes/arm-none-eabi/armv7em_hard_fpv4_sp_d16_exn_rtti\lib\libc.a(libc_picolib_machine_arm_read_tp.S.o):(.debug_info)
   43565    43565      169     1         D:\Renesas\RA\e2studio_v2023-07_fsp_v4.6.0\toolchains\llvm_arm\LLVM-ET-Arm-18.1.3-Windows-x86_64\bin\..\lib\clang-runtimes/arm-none-eabi/armv7em_hard_fpv4_sp_d16_exn_rtti\lib\libc.a(libc_tinystdio_snprintf.c.o):(.debug_info)
   436ce    436ce      13c     1         D:\Renesas\RA\e2studio_v2023-07_fsp_v4.6.0\toolchains\llvm_arm\LLVM-ET-Arm-18.1.3-Windows-x86_64\bin\..\lib\clang-runtimes/arm-none-eabi/armv7em_hard_fpv4_sp_d16_exn_rtti\lib\libc.a(libc_tinystdio_filestrput.c.o):(.debug_info)
   4380a    4380a      492     1         D:\Renesas\RA\e2studio_v2023-07_fsp_v4.6.0\toolchains\llvm_arm\LLVM-ET-Arm-18.1.3-Windows-x86_64\bin\..\lib\clang-runtimes/arm-none-eabi/armv7em_hard_fpv4_sp_d16_exn_rtti\lib\libc.a(libc_tinystdio_vfprintf.c.o):(.debug_info)
   43c9c    43c9c      19f     1         D:\Renesas\RA\e2studio_v2023-07_fsp_v4.6.0\toolchains\llvm_arm\LLVM-ET-Arm-18.1.3-Windows-x86_64\bin\..\lib\clang-runtimes/arm-none-eabi/armv7em_hard_fpv4_sp_d16_exn_rtti\lib\libc.a(libc_tinystdio_dtox_engine.c.o):(.debug_info)
   43e3b    43e3b       6e     1         D:\Renesas\RA\e2studio_v2023-07_fsp_v4.6.0\toolchains\llvm_arm\LLVM-ET-Arm-18.1.3-Windows-x86_64\bin\..\lib\clang-runtimes/arm-none-eabi/armv7em_hard_fpv4_sp_d16_exn_rtti\lib\libc.a(libc_string_strnlen.c.o):(.debug_info)
   43ea9    43ea9      79c     1         D:\Renesas\RA\e2studio_v2023-07_fsp_v4.6.0\toolchains\llvm_arm\LLVM-ET-Arm-18.1.3-Windows-x86_64\bin\..\lib\clang-runtimes/arm-none-eabi/armv7em_hard_fpv4_sp_d16_exn_rtti\lib\libc.a(libc_tinystdio_dtoa_ryu.c.o):(.debug_info)
   44645    44645       8b     1         D:\Renesas\RA\e2studio_v2023-07_fsp_v4.6.0\toolchains\llvm_arm\LLVM-ET-Arm-18.1.3-Windows-x86_64\bin\..\lib\clang-runtimes/arm-none-eabi/armv7em_hard_fpv4_sp_d16_exn_rtti\lib\libc.a(libc_tinystdio_ryu_log10.c.o):(.debug_info)
   446d0    446d0       6e     1         D:\Renesas\RA\e2studio_v2023-07_fsp_v4.6.0\toolchains\llvm_arm\LLVM-ET-Arm-18.1.3-Windows-x86_64\bin\..\lib\clang-runtimes/arm-none-eabi/armv7em_hard_fpv4_sp_d16_exn_rtti\lib\libc.a(libc_tinystdio_ryu_pow5bits.c.o):(.debug_info)
   4473e    4473e      254     1         D:\Renesas\RA\e2studio_v2023-07_fsp_v4.6.0\toolchains\llvm_arm\LLVM-ET-Arm-18.1.3-Windows-x86_64\bin\..\lib\clang-runtimes/arm-none-eabi/armv7em_hard_fpv4_sp_d16_exn_rtti\lib\libc.a(libc_tinystdio_ryu_table.c.o):(.debug_info)
   44992    44992      169     1         D:\Renesas\RA\e2studio_v2023-07_fsp_v4.6.0\toolchains\llvm_arm\LLVM-ET-Arm-18.1.3-Windows-x86_64\bin\..\lib\clang-runtimes/arm-none-eabi/armv7em_hard_fpv4_sp_d16_exn_rtti\lib\libc.a(libc_tinystdio_ryu_umul128.c.o):(.debug_info)
   44afb    44afb      12b     1         D:\Renesas\RA\e2studio_v2023-07_fsp_v4.6.0\toolchains\llvm_arm\LLVM-ET-Arm-18.1.3-Windows-x86_64\bin\..\lib\clang-runtimes/arm-none-eabi/armv7em_hard_fpv4_sp_d16_exn_rtti\lib\libc.a(strcmp.S.o):(.debug_info)
   44c26    44c26       7f     1         D:\Renesas\RA\e2studio_v2023-07_fsp_v4.6.0\toolchains\llvm_arm\LLVM-ET-Arm-18.1.3-Windows-x86_64\bin\..\lib\clang-runtimes/arm-none-eabi/armv7em_hard_fpv4_sp_d16_exn_rtti\lib\libc.a(aeabi_memset.c.o):(.debug_info)
   44ca5    44ca5       76     1         D:\Renesas\RA\e2studio_v2023-07_fsp_v4.6.0\toolchains\llvm_arm\LLVM-ET-Arm-18.1.3-Windows-x86_64\bin\..\lib\clang-runtimes/arm-none-eabi/armv7em_hard_fpv4_sp_d16_exn_rtti\lib\libc.a(bzero.c.o):(.debug_info)
   44d1b    44d1b       97     1         D:\Renesas\RA\e2studio_v2023-07_fsp_v4.6.0\toolchains\llvm_arm\LLVM-ET-Arm-18.1.3-Windows-x86_64\bin\..\lib\clang-runtimes/arm-none-eabi/armv7em_hard_fpv4_sp_d16_exn_rtti\lib\libc.a(memcpy.c.o):(.debug_info)
   44db2    44db2       8c     1         D:\Renesas\RA\e2studio_v2023-07_fsp_v4.6.0\toolchains\llvm_arm\LLVM-ET-Arm-18.1.3-Windows-x86_64\bin\..\lib\clang-runtimes/arm-none-eabi/armv7em_hard_fpv4_sp_d16_exn_rtti\lib\libc.a(memmove.c.o):(.debug_info)
   44e3e    44e3e       78     1         D:\Renesas\RA\e2studio_v2023-07_fsp_v4.6.0\toolchains\llvm_arm\LLVM-ET-Arm-18.1.3-Windows-x86_64\bin\..\lib\clang-runtimes/arm-none-eabi/armv7em_hard_fpv4_sp_d16_exn_rtti\lib\libc.a(memset.c.o):(.debug_info)
   44eb6    44eb6      12c     1         D:\Renesas\RA\e2studio_v2023-07_fsp_v4.6.0\toolchains\llvm_arm\LLVM-ET-Arm-18.1.3-Windows-x86_64\bin\..\lib\clang-runtimes/arm-none-eabi/armv7em_hard_fpv4_sp_d16_exn_rtti\lib\libc.a(strlen.S.o):(.debug_info)
       0        0     1e9d     1 .debug_rnglists
       0        0      1d3     1         ./src/SEGGER_RTT/SEGGER_RTT.o:(.debug_rnglists)
     1d3      1d3       c6     1         ./src/SEGGER_RTT/SEGGER_RTT_printf.o:(.debug_rnglists)
     299      299       25     1         ./src/new_thread0_entry.o:(.debug_rnglists)
     2be      2be       20     1         ./ra_gen/main.o:(.debug_rnglists)
     2de      2de       17     1         ./ra_gen/new_thread0.o:(.debug_rnglists)
     2f5      2f5       7f     1         ./ra/fsp/src/rm_freertos_port/port.o:(.debug_rnglists)
     374      374       60     1         ./ra/fsp/src/rm_freertos_plus_tcp/NetworkInterface.o:(.debug_rnglists)
     3d4      3d4       6a     1         ./ra/fsp/src/r_ioport/r_ioport.o:(.debug_rnglists)
     43e      43e       53     1         ./ra/fsp/src/r_ether_phy/r_ether_phy.o:(.debug_rnglists)
     491      491      135     1         ./ra/fsp/src/r_ether/r_ether.o:(.debug_rnglists)
     5c6      5c6       80     1         ./ra/fsp/src/bsp/mcu/all/bsp_clocks.o:(.debug_rnglists)
     646      646       1a     1         ./ra/fsp/src/bsp/mcu/all/bsp_common.o:(.debug_rnglists)
     660      660       18     1         ./ra/fsp/src/bsp/mcu/all/bsp_delay.o:(.debug_rnglists)
     678      678       17     1         ./ra/fsp/src/bsp/mcu/all/bsp_group_irq.o:(.debug_rnglists)
     68f      68f       24     1         ./ra/fsp/src/bsp/mcu/all/bsp_register_protection.o:(.debug_rnglists)
     6b3      6b3       1b     1         ./ra/fsp/src/bsp/mcu/all/bsp_sdram.o:(.debug_rnglists)
     6ce      6ce       17     1         ./ra/fsp/src/bsp/cmsis/Device/RENESAS/Source/startup.o:(.debug_rnglists)
     6e5      6e5       18     1         ./ra/fsp/src/bsp/cmsis/Device/RENESAS/Source/system.o:(.debug_rnglists)
     6fd      6fd       3c     1         ./ra/aws/FreeRTOS/FreeRTOS/Source/portable/MemMang/heap_4.o:(.debug_rnglists)
     739      739       51     1         ./ra/aws/FreeRTOS/FreeRTOS/Source/event_groups.o:(.debug_rnglists)
     78a      78a       20     1         ./ra/aws/FreeRTOS/FreeRTOS/Source/list.o:(.debug_rnglists)
     7aa      7aa      1ad     1         ./ra/aws/FreeRTOS/FreeRTOS/Source/queue.o:(.debug_rnglists)
     957      957       96     1         ./ra/aws/FreeRTOS/FreeRTOS/Source/stream_buffer.o:(.debug_rnglists)
     9ed      9ed      2d5     1         ./ra/aws/FreeRTOS/FreeRTOS/Source/tasks.o:(.debug_rnglists)
     cc2      cc2      132     1         ./ra/aws/FreeRTOS/FreeRTOS/Source/timers.o:(.debug_rnglists)
     df4      df4       3d     1         ./ra/aws/FreeRTOS/FreeRTOS-Plus/Source/FreeRTOS-Plus-TCP/source/portable/BufferManagement/BufferAllocation_2.o:(.debug_rnglists)
     e31      e31       ac     1         ./ra/aws/FreeRTOS/FreeRTOS-Plus/Source/FreeRTOS-Plus-TCP/source/FreeRTOS_ARP.o:(.debug_rnglists)
     edd      edd       a8     1         ./ra/aws/FreeRTOS/FreeRTOS-Plus/Source/FreeRTOS-Plus-TCP/source/FreeRTOS_BitConfig.o:(.debug_rnglists)
     f85      f85      141     1         ./ra/aws/FreeRTOS/FreeRTOS-Plus/Source/FreeRTOS-Plus-TCP/source/FreeRTOS_DNS.o:(.debug_rnglists)
    10c6     10c6       78     1         ./ra/aws/FreeRTOS/FreeRTOS-Plus/Source/FreeRTOS-Plus-TCP/source/FreeRTOS_DNS_Cache.o:(.debug_rnglists)
    113e     113e       20     1         ./ra/aws/FreeRTOS/FreeRTOS-Plus/Source/FreeRTOS-Plus-TCP/source/FreeRTOS_DNS_Networking.o:(.debug_rnglists)
    115e     115e       78     1         ./ra/aws/FreeRTOS/FreeRTOS-Plus/Source/FreeRTOS-Plus-TCP/source/FreeRTOS_DNS_Parser.o:(.debug_rnglists)
    11d6     11d6      172     1         ./ra/aws/FreeRTOS/FreeRTOS-Plus/Source/FreeRTOS-Plus-TCP/source/FreeRTOS_IP.o:(.debug_rnglists)
    1348     1348       8c     1         ./ra/aws/FreeRTOS/FreeRTOS-Plus/Source/FreeRTOS-Plus-TCP/source/FreeRTOS_IP_Timers.o:(.debug_rnglists)
    13d4     13d4       92     1         ./ra/aws/FreeRTOS/FreeRTOS-Plus/Source/FreeRTOS-Plus-TCP/source/FreeRTOS_IP_Utils.o:(.debug_rnglists)
    1466     1466       67     1         ./ra/aws/FreeRTOS/FreeRTOS-Plus/Source/FreeRTOS-Plus-TCP/source/FreeRTOS_IPv4.o:(.debug_rnglists)
    14cd     14cd       2b     1         ./ra/aws/FreeRTOS/FreeRTOS-Plus/Source/FreeRTOS-Plus-TCP/source/FreeRTOS_IPv4_Sockets.o:(.debug_rnglists)
    14f8     14f8       18     1         ./ra/aws/FreeRTOS/FreeRTOS-Plus/Source/FreeRTOS-Plus-TCP/source/FreeRTOS_IPv4_Utils.o:(.debug_rnglists)
    1510     1510       8a     1         ./ra/aws/FreeRTOS/FreeRTOS-Plus/Source/FreeRTOS-Plus-TCP/source/FreeRTOS_Routing.o:(.debug_rnglists)
    159a     159a      2c3     1         ./ra/aws/FreeRTOS/FreeRTOS-Plus/Source/FreeRTOS-Plus-TCP/source/FreeRTOS_Sockets.o:(.debug_rnglists)
    185d     185d       b5     1         ./ra/aws/FreeRTOS/FreeRTOS-Plus/Source/FreeRTOS-Plus-TCP/source/FreeRTOS_Stream_Buffer.o:(.debug_rnglists)
    1912     1912       d3     1         ./ra/aws/FreeRTOS/FreeRTOS-Plus/Source/FreeRTOS-Plus-TCP/source/FreeRTOS_TCP_IP.o:(.debug_rnglists)
    19e5     19e5       2b     1         ./ra/aws/FreeRTOS/FreeRTOS-Plus/Source/FreeRTOS-Plus-TCP/source/FreeRTOS_TCP_Reception.o:(.debug_rnglists)
    1a10     1a10       75     1         ./ra/aws/FreeRTOS/FreeRTOS-Plus/Source/FreeRTOS-Plus-TCP/source/FreeRTOS_TCP_State_Handling.o:(.debug_rnglists)
    1a85     1a85       1b     1         ./ra/aws/FreeRTOS/FreeRTOS-Plus/Source/FreeRTOS-Plus-TCP/source/FreeRTOS_TCP_State_Handling_IPv4.o:(.debug_rnglists)
    1aa0     1aa0       97     1         ./ra/aws/FreeRTOS/FreeRTOS-Plus/Source/FreeRTOS-Plus-TCP/source/FreeRTOS_TCP_Transmission.o:(.debug_rnglists)
    1b37     1b37       9b     1         ./ra/aws/FreeRTOS/FreeRTOS-Plus/Source/FreeRTOS-Plus-TCP/source/FreeRTOS_TCP_Transmission_IPv4.o:(.debug_rnglists)
    1bd2     1bd2       2d     1         ./ra/aws/FreeRTOS/FreeRTOS-Plus/Source/FreeRTOS-Plus-TCP/source/FreeRTOS_TCP_WIN.o:(.debug_rnglists)
    1bff     1bff       46     1         ./ra/aws/FreeRTOS/FreeRTOS-Plus/Source/FreeRTOS-Plus-TCP/source/FreeRTOS_Tiny_TCP.o:(.debug_rnglists)
    1c45     1c45       17     1         ./ra/aws/FreeRTOS/FreeRTOS-Plus/Source/FreeRTOS-Plus-TCP/source/FreeRTOS_UDP_IP.o:(.debug_rnglists)
    1c5c     1c5c       29     1         ./ra/aws/FreeRTOS/FreeRTOS-Plus/Source/FreeRTOS-Plus-TCP/source/FreeRTOS_UDP_IPv4.o:(.debug_rnglists)
    1c85     1c85      141     1         D:\Renesas\RA\e2studio_v2023-07_fsp_v4.6.0\toolchains\llvm_arm\LLVM-ET-Arm-18.1.3-Windows-x86_64\bin\..\lib\clang-runtimes/arm-none-eabi/armv7em_hard_fpv4_sp_d16_exn_rtti\lib\libc.a(libc_tinystdio_vfprintf.c.o):(.debug_rnglists)
    1dc6     1dc6       84     1         D:\Renesas\RA\e2studio_v2023-07_fsp_v4.6.0\toolchains\llvm_arm\LLVM-ET-Arm-18.1.3-Windows-x86_64\bin\..\lib\clang-runtimes/arm-none-eabi/armv7em_hard_fpv4_sp_d16_exn_rtti\lib\libc.a(libc_tinystdio_dtoa_ryu.c.o):(.debug_rnglists)
    1e4a     1e4a       17     1         D:\Renesas\RA\e2studio_v2023-07_fsp_v4.6.0\toolchains\llvm_arm\LLVM-ET-Arm-18.1.3-Windows-x86_64\bin\..\lib\clang-runtimes/arm-none-eabi/armv7em_hard_fpv4_sp_d16_exn_rtti\lib\libc.a(libc_tinystdio_ryu_log10.c.o):(.debug_rnglists)
    1e61     1e61       25     1         D:\Renesas\RA\e2studio_v2023-07_fsp_v4.6.0\toolchains\llvm_arm\LLVM-ET-Arm-18.1.3-Windows-x86_64\bin\..\lib\clang-runtimes/arm-none-eabi/armv7em_hard_fpv4_sp_d16_exn_rtti\lib\libc.a(libc_tinystdio_ryu_table.c.o):(.debug_rnglists)
    1e86     1e86       17     1         D:\Renesas\RA\e2studio_v2023-07_fsp_v4.6.0\toolchains\llvm_arm\LLVM-ET-Arm-18.1.3-Windows-x86_64\bin\..\lib\clang-runtimes/arm-none-eabi/armv7em_hard_fpv4_sp_d16_exn_rtti\lib\libc.a(libc_tinystdio_ryu_umul128.c.o):(.debug_rnglists)
       0        0    14174     1 .debug_str_offsets
       0        0      188     1         ./src/SEGGER_RTT/SEGGER_RTT.o:(.debug_str_offsets)
     188      188       c4     1         ./src/SEGGER_RTT/SEGGER_RTT_printf.o:(.debug_str_offsets)
     24c      24c      81c     1         ./src/hal_warmstart.o:(.debug_str_offsets)
     a68      a68      7e4     1         ./src/new_thread0_entry.o:(.debug_str_offsets)
    124c     124c      c6c     1         ./ra_gen/common_data.o:(.debug_str_offsets)
    1eb8     1eb8       1c     1         ./ra_gen/hal_data.o:(.debug_str_offsets)
    1ed4     1ed4      12c     1         ./ra_gen/main.o:(.debug_str_offsets)
    2000     2000       b8     1         ./ra_gen/new_thread0.o:(.debug_str_offsets)
    20b8     20b8      428     1         ./ra_gen/pin_data.o:(.debug_str_offsets)
    24e0     24e0      534     1         ./ra_gen/vector_data.o:(.debug_str_offsets)
    2a14     2a14      d74     1         ./ra/fsp/src/rm_freertos_port/port.o:(.debug_str_offsets)
    3788     3788      960     1         ./ra/fsp/src/rm_freertos_plus_tcp/NetworkInterface.o:(.debug_str_offsets)
    40e8     40e8     1ad8     1         ./ra/fsp/src/r_ioport/r_ioport.o:(.debug_str_offsets)
    5bc0     5bc0      7c0     1         ./ra/fsp/src/r_ether_phy/r_ether_phy.o:(.debug_str_offsets)
    6380     6380     1168     1         ./ra/fsp/src/r_ether/r_ether.o:(.debug_str_offsets)
    74e8     74e8       88     1         ./ra/fsp/src/bsp/mcu/ra6m2/bsp_linker.o:(.debug_str_offsets)
    7570     7570     1000     1         ./ra/fsp/src/bsp/mcu/all/bsp_clocks.o:(.debug_str_offsets)
    8570     8570      464     1         ./ra/fsp/src/bsp/mcu/all/bsp_common.o:(.debug_str_offsets)
    89d4     89d4       74     1         ./ra/fsp/src/bsp/mcu/all/bsp_delay.o:(.debug_str_offsets)
    8a48     8a48      694     1         ./ra/fsp/src/bsp/mcu/all/bsp_group_irq.o:(.debug_str_offsets)
    90dc     90dc       24     1         ./ra/fsp/src/bsp/mcu/all/bsp_io.o:(.debug_str_offsets)
    9100     9100      778     1         ./ra/fsp/src/bsp/mcu/all/bsp_irq.o:(.debug_str_offsets)
    9878     9878      bac     1         ./ra/fsp/src/bsp/mcu/all/bsp_register_protection.o:(.debug_str_offsets)
    a424     a424       44     1         ./ra/fsp/src/bsp/mcu/all/bsp_sbrk.o:(.debug_str_offsets)
    a468     a468      f84     1         ./ra/fsp/src/bsp/mcu/all/bsp_sdram.o:(.debug_str_offsets)
    b3ec     b3ec       3c     1         ./ra/fsp/src/bsp/cmsis/Device/RENESAS/Source/startup.o:(.debug_str_offsets)
    b428     b428      344     1         ./ra/fsp/src/bsp/cmsis/Device/RENESAS/Source/system.o:(.debug_str_offsets)
    b76c     b76c      110     1         ./ra/aws/FreeRTOS/FreeRTOS/Source/portable/MemMang/heap_4.o:(.debug_str_offsets)
    b87c     b87c      1f4     1         ./ra/aws/FreeRTOS/FreeRTOS/Source/event_groups.o:(.debug_str_offsets)
    ba70     ba70       90     1         ./ra/aws/FreeRTOS/FreeRTOS/Source/list.o:(.debug_str_offsets)
    bb00     bb00      2e0     1         ./ra/aws/FreeRTOS/FreeRTOS/Source/queue.o:(.debug_str_offsets)
    bde0     bde0      1e4     1         ./ra/aws/FreeRTOS/FreeRTOS/Source/stream_buffer.o:(.debug_str_offsets)
    bfc4     bfc4      44c     1         ./ra/aws/FreeRTOS/FreeRTOS/Source/tasks.o:(.debug_str_offsets)
    c410     c410      2e8     1         ./ra/aws/FreeRTOS/FreeRTOS/Source/timers.o:(.debug_str_offsets)
    c6f8     c6f8      2c4     1         ./ra/aws/FreeRTOS/FreeRTOS-Plus/Source/FreeRTOS-Plus-TCP/source/portable/BufferManagement/BufferAllocation_2.o:(.debug_str_offsets)
    c9bc     c9bc      420     1         ./ra/aws/FreeRTOS/FreeRTOS-Plus/Source/FreeRTOS-Plus-TCP/source/FreeRTOS_ARP.o:(.debug_str_offsets)
    cddc     cddc       c4     1         ./ra/aws/FreeRTOS/FreeRTOS-Plus/Source/FreeRTOS-Plus-TCP/source/FreeRTOS_BitConfig.o:(.debug_str_offsets)
    cea0     cea0      5ec     1         ./ra/aws/FreeRTOS/FreeRTOS-Plus/Source/FreeRTOS-Plus-TCP/source/FreeRTOS_DNS.o:(.debug_str_offsets)
    d48c     d48c      16c     1         ./ra/aws/FreeRTOS/FreeRTOS-Plus/Source/FreeRTOS-Plus-TCP/source/FreeRTOS_DNS_Cache.o:(.debug_str_offsets)
    d5f8     d5f8      488     1         ./ra/aws/FreeRTOS/FreeRTOS-Plus/Source/FreeRTOS-Plus-TCP/source/FreeRTOS_DNS_Networking.o:(.debug_str_offsets)
    da80     da80      1b8     1         ./ra/aws/FreeRTOS/FreeRTOS-Plus/Source/FreeRTOS-Plus-TCP/source/FreeRTOS_DNS_Parser.o:(.debug_str_offsets)
    dc38     dc38      2a8     1         ./ra/aws/FreeRTOS/FreeRTOS-Plus/Source/FreeRTOS-Plus-TCP/source/FreeRTOS_ICMP.o:(.debug_str_offsets)
    dee0     dee0      804     1         ./ra/aws/FreeRTOS/FreeRTOS-Plus/Source/FreeRTOS-Plus-TCP/source/FreeRTOS_IP.o:(.debug_str_offsets)
    e6e4     e6e4      2dc     1         ./ra/aws/FreeRTOS/FreeRTOS-Plus/Source/FreeRTOS-Plus-TCP/source/FreeRTOS_IP_Timers.o:(.debug_str_offsets)
    e9c0     e9c0      490     1         ./ra/aws/FreeRTOS/FreeRTOS-Plus/Source/FreeRTOS-Plus-TCP/source/FreeRTOS_IP_Utils.o:(.debug_str_offsets)
    ee50     ee50      340     1         ./ra/aws/FreeRTOS/FreeRTOS-Plus/Source/FreeRTOS-Plus-TCP/source/FreeRTOS_IPv4.o:(.debug_str_offsets)
    f190     f190      2c4     1         ./ra/aws/FreeRTOS/FreeRTOS-Plus/Source/FreeRTOS-Plus-TCP/source/FreeRTOS_IPv4_Sockets.o:(.debug_str_offsets)
    f454     f454      180     1         ./ra/aws/FreeRTOS/FreeRTOS-Plus/Source/FreeRTOS-Plus-TCP/source/FreeRTOS_IPv4_Utils.o:(.debug_str_offsets)
    f5d4     f5d4      5f4     1         ./ra/aws/FreeRTOS/FreeRTOS-Plus/Source/FreeRTOS-Plus-TCP/source/FreeRTOS_Routing.o:(.debug_str_offsets)
    fbc8     fbc8      87c     1         ./ra/aws/FreeRTOS/FreeRTOS-Plus/Source/FreeRTOS-Plus-TCP/source/FreeRTOS_Sockets.o:(.debug_str_offsets)
   10444    10444       d8     1         ./ra/aws/FreeRTOS/FreeRTOS-Plus/Source/FreeRTOS-Plus-TCP/source/FreeRTOS_Stream_Buffer.o:(.debug_str_offsets)
   1051c    1051c      588     1         ./ra/aws/FreeRTOS/FreeRTOS-Plus/Source/FreeRTOS-Plus-TCP/source/FreeRTOS_TCP_IP.o:(.debug_str_offsets)
   10aa4    10aa4      578     1         ./ra/aws/FreeRTOS/FreeRTOS-Plus/Source/FreeRTOS-Plus-TCP/source/FreeRTOS_TCP_Reception.o:(.debug_str_offsets)
   1101c    1101c      568     1         ./ra/aws/FreeRTOS/FreeRTOS-Plus/Source/FreeRTOS-Plus-TCP/source/FreeRTOS_TCP_State_Handling.o:(.debug_str_offsets)
   11584    11584      518     1         ./ra/aws/FreeRTOS/FreeRTOS-Plus/Source/FreeRTOS-Plus-TCP/source/FreeRTOS_TCP_State_Handling_IPv4.o:(.debug_str_offsets)
   11a9c    11a9c      5c0     1         ./ra/aws/FreeRTOS/FreeRTOS-Plus/Source/FreeRTOS-Plus-TCP/source/FreeRTOS_TCP_Transmission.o:(.debug_str_offsets)
   1205c    1205c      55c     1         ./ra/aws/FreeRTOS/FreeRTOS-Plus/Source/FreeRTOS-Plus-TCP/source/FreeRTOS_TCP_Transmission_IPv4.o:(.debug_str_offsets)
   125b8    125b8      420     1         ./ra/aws/FreeRTOS/FreeRTOS-Plus/Source/FreeRTOS-Plus-TCP/source/FreeRTOS_TCP_Utils.o:(.debug_str_offsets)
   129d8    129d8      424     1         ./ra/aws/FreeRTOS/FreeRTOS-Plus/Source/FreeRTOS-Plus-TCP/source/FreeRTOS_TCP_Utils_IPv4.o:(.debug_str_offsets)
   12dfc    12dfc      138     1         ./ra/aws/FreeRTOS/FreeRTOS-Plus/Source/FreeRTOS-Plus-TCP/source/FreeRTOS_TCP_WIN.o:(.debug_str_offsets)
   12f34    12f34      198     1         ./ra/aws/FreeRTOS/FreeRTOS-Plus/Source/FreeRTOS-Plus-TCP/source/FreeRTOS_Tiny_TCP.o:(.debug_str_offsets)
   130cc    130cc      260     1         ./ra/aws/FreeRTOS/FreeRTOS-Plus/Source/FreeRTOS-Plus-TCP/source/FreeRTOS_UDP_IP.o:(.debug_str_offsets)
   1332c    1332c      4f4     1         ./ra/aws/FreeRTOS/FreeRTOS-Plus/Source/FreeRTOS-Plus-TCP/source/FreeRTOS_UDP_IPv4.o:(.debug_str_offsets)
   13820    13820       1c     1         D:\Renesas\RA\e2studio_v2023-07_fsp_v4.6.0\toolchains\llvm_arm\LLVM-ET-Arm-18.1.3-Windows-x86_64\bin\..\lib\clang-runtimes/arm-none-eabi/armv7em_hard_fpv4_sp_d16_exn_rtti\lib\libc.a(libc_errno_errno.c.o):(.debug_str_offsets)
   1383c    1383c       24     1         D:\Renesas\RA\e2studio_v2023-07_fsp_v4.6.0\toolchains\llvm_arm\LLVM-ET-Arm-18.1.3-Windows-x86_64\bin\..\lib\clang-runtimes/arm-none-eabi/armv7em_hard_fpv4_sp_d16_exn_rtti\lib\libc.a(libc_stdlib_rand.c.o):(.debug_str_offsets)
   13860    13860       24     1         D:\Renesas\RA\e2studio_v2023-07_fsp_v4.6.0\toolchains\llvm_arm\LLVM-ET-Arm-18.1.3-Windows-x86_64\bin\..\lib\clang-runtimes/arm-none-eabi/armv7em_hard_fpv4_sp_d16_exn_rtti\lib\libc.a(libc_stdlib_random.c.o):(.debug_str_offsets)
   13884    13884       3c     1         D:\Renesas\RA\e2studio_v2023-07_fsp_v4.6.0\toolchains\llvm_arm\LLVM-ET-Arm-18.1.3-Windows-x86_64\bin\..\lib\clang-runtimes/arm-none-eabi/armv7em_hard_fpv4_sp_d16_exn_rtti\lib\libc.a(libc_string_memcmp.c.o):(.debug_str_offsets)
   138c0    138c0       34     1         D:\Renesas\RA\e2studio_v2023-07_fsp_v4.6.0\toolchains\llvm_arm\LLVM-ET-Arm-18.1.3-Windows-x86_64\bin\..\lib\clang-runtimes/arm-none-eabi/armv7em_hard_fpv4_sp_d16_exn_rtti\lib\libc.a(libc_string_strchr.c.o):(.debug_str_offsets)
   138f4    138f4       38     1         D:\Renesas\RA\e2studio_v2023-07_fsp_v4.6.0\toolchains\llvm_arm\LLVM-ET-Arm-18.1.3-Windows-x86_64\bin\..\lib\clang-runtimes/arm-none-eabi/armv7em_hard_fpv4_sp_d16_exn_rtti\lib\libc.a(libc_string_strncpy.c.o):(.debug_str_offsets)
   1392c    1392c       30     1         D:\Renesas\RA\e2studio_v2023-07_fsp_v4.6.0\toolchains\llvm_arm\LLVM-ET-Arm-18.1.3-Windows-x86_64\bin\..\lib\clang-runtimes/arm-none-eabi/armv7em_hard_fpv4_sp_d16_exn_rtti\lib\libc.a(libc_picolib_inittls.c.o):(.debug_str_offsets)
   1395c    1395c       30     1         D:\Renesas\RA\e2studio_v2023-07_fsp_v4.6.0\toolchains\llvm_arm\LLVM-ET-Arm-18.1.3-Windows-x86_64\bin\..\lib\clang-runtimes/arm-none-eabi/armv7em_hard_fpv4_sp_d16_exn_rtti\lib\libc.a(libc_picolib_machine_arm_tls.c.o):(.debug_str_offsets)
   1398c    1398c       98     1         D:\Renesas\RA\e2studio_v2023-07_fsp_v4.6.0\toolchains\llvm_arm\LLVM-ET-Arm-18.1.3-Windows-x86_64\bin\..\lib\clang-runtimes/arm-none-eabi/armv7em_hard_fpv4_sp_d16_exn_rtti\lib\libc.a(libc_tinystdio_snprintf.c.o):(.debug_str_offsets)
   13a24    13a24       84     1         D:\Renesas\RA\e2studio_v2023-07_fsp_v4.6.0\toolchains\llvm_arm\LLVM-ET-Arm-18.1.3-Windows-x86_64\bin\..\lib\clang-runtimes/arm-none-eabi/armv7em_hard_fpv4_sp_d16_exn_rtti\lib\libc.a(libc_tinystdio_filestrput.c.o):(.debug_str_offsets)
   13aa8    13aa8      184     1         D:\Renesas\RA\e2studio_v2023-07_fsp_v4.6.0\toolchains\llvm_arm\LLVM-ET-Arm-18.1.3-Windows-x86_64\bin\..\lib\clang-runtimes/arm-none-eabi/armv7em_hard_fpv4_sp_d16_exn_rtti\lib\libc.a(libc_tinystdio_vfprintf.c.o):(.debug_str_offsets)
   13c2c    13c2c       a0     1         D:\Renesas\RA\e2studio_v2023-07_fsp_v4.6.0\toolchains\llvm_arm\LLVM-ET-Arm-18.1.3-Windows-x86_64\bin\..\lib\clang-runtimes/arm-none-eabi/armv7em_hard_fpv4_sp_d16_exn_rtti\lib\libc.a(libc_tinystdio_dtox_engine.c.o):(.debug_str_offsets)
   13ccc    13ccc       30     1         D:\Renesas\RA\e2studio_v2023-07_fsp_v4.6.0\toolchains\llvm_arm\LLVM-ET-Arm-18.1.3-Windows-x86_64\bin\..\lib\clang-runtimes/arm-none-eabi/armv7em_hard_fpv4_sp_d16_exn_rtti\lib\libc.a(libc_string_strnlen.c.o):(.debug_str_offsets)
   13cfc    13cfc      1c0     1         D:\Renesas\RA\e2studio_v2023-07_fsp_v4.6.0\toolchains\llvm_arm\LLVM-ET-Arm-18.1.3-Windows-x86_64\bin\..\lib\clang-runtimes/arm-none-eabi/armv7em_hard_fpv4_sp_d16_exn_rtti\lib\libc.a(libc_tinystdio_dtoa_ryu.c.o):(.debug_str_offsets)
   13ebc    13ebc       38     1         D:\Renesas\RA\e2studio_v2023-07_fsp_v4.6.0\toolchains\llvm_arm\LLVM-ET-Arm-18.1.3-Windows-x86_64\bin\..\lib\clang-runtimes/arm-none-eabi/armv7em_hard_fpv4_sp_d16_exn_rtti\lib\libc.a(libc_tinystdio_ryu_log10.c.o):(.debug_str_offsets)
   13ef4    13ef4       34     1         D:\Renesas\RA\e2studio_v2023-07_fsp_v4.6.0\toolchains\llvm_arm\LLVM-ET-Arm-18.1.3-Windows-x86_64\bin\..\lib\clang-runtimes/arm-none-eabi/armv7em_hard_fpv4_sp_d16_exn_rtti\lib\libc.a(libc_tinystdio_ryu_pow5bits.c.o):(.debug_str_offsets)
   13f28    13f28       a0     1         D:\Renesas\RA\e2studio_v2023-07_fsp_v4.6.0\toolchains\llvm_arm\LLVM-ET-Arm-18.1.3-Windows-x86_64\bin\..\lib\clang-runtimes/arm-none-eabi/armv7em_hard_fpv4_sp_d16_exn_rtti\lib\libc.a(libc_tinystdio_ryu_table.c.o):(.debug_str_offsets)
   13fc8    13fc8       9c     1         D:\Renesas\RA\e2studio_v2023-07_fsp_v4.6.0\toolchains\llvm_arm\LLVM-ET-Arm-18.1.3-Windows-x86_64\bin\..\lib\clang-runtimes/arm-none-eabi/armv7em_hard_fpv4_sp_d16_exn_rtti\lib\libc.a(libc_tinystdio_ryu_umul128.c.o):(.debug_str_offsets)
   14064    14064       34     1         D:\Renesas\RA\e2studio_v2023-07_fsp_v4.6.0\toolchains\llvm_arm\LLVM-ET-Arm-18.1.3-Windows-x86_64\bin\..\lib\clang-runtimes/arm-none-eabi/armv7em_hard_fpv4_sp_d16_exn_rtti\lib\libc.a(aeabi_memset.c.o):(.debug_str_offsets)
   14098    14098       30     1         D:\Renesas\RA\e2studio_v2023-07_fsp_v4.6.0\toolchains\llvm_arm\LLVM-ET-Arm-18.1.3-Windows-x86_64\bin\..\lib\clang-runtimes/arm-none-eabi/armv7em_hard_fpv4_sp_d16_exn_rtti\lib\libc.a(bzero.c.o):(.debug_str_offsets)
   140c8    140c8       3c     1         D:\Renesas\RA\e2studio_v2023-07_fsp_v4.6.0\toolchains\llvm_arm\LLVM-ET-Arm-18.1.3-Windows-x86_64\bin\..\lib\clang-runtimes/arm-none-eabi/armv7em_hard_fpv4_sp_d16_exn_rtti\lib\libc.a(memcpy.c.o):(.debug_str_offsets)
   14104    14104       38     1         D:\Renesas\RA\e2studio_v2023-07_fsp_v4.6.0\toolchains\llvm_arm\LLVM-ET-Arm-18.1.3-Windows-x86_64\bin\..\lib\clang-runtimes/arm-none-eabi/armv7em_hard_fpv4_sp_d16_exn_rtti\lib\libc.a(memmove.c.o):(.debug_str_offsets)
   1413c    1413c       38     1         D:\Renesas\RA\e2studio_v2023-07_fsp_v4.6.0\toolchains\llvm_arm\LLVM-ET-Arm-18.1.3-Windows-x86_64\bin\..\lib\clang-runtimes/arm-none-eabi/armv7em_hard_fpv4_sp_d16_exn_rtti\lib\libc.a(memset.c.o):(.debug_str_offsets)
       0        0    1643f     1 .debug_str
       0        0    1643f     1         <internal>:(.debug_str)
       0        0     1dcc     1 .debug_addr
       0        0      1bc     1         ./src/SEGGER_RTT/SEGGER_RTT.o:(.debug_addr)
     1bc      1bc       40     1         ./src/SEGGER_RTT/SEGGER_RTT_printf.o:(.debug_addr)
     1fc      1fc       10     1         ./src/hal_warmstart.o:(.debug_addr)
     20c      20c       bc     1         ./src/new_thread0_entry.o:(.debug_addr)
     2c8      2c8       78     1         ./ra_gen/common_data.o:(.debug_addr)
     340      340        c     1         ./ra_gen/hal_data.o:(.debug_addr)
     34c      34c       3c     1         ./ra_gen/main.o:(.debug_addr)
     388      388       2c     1         ./ra_gen/new_thread0.o:(.debug_addr)
     3b4      3b4       10     1         ./ra_gen/pin_data.o:(.debug_addr)
     3c4      3c4       10     1         ./ra_gen/vector_data.o:(.debug_addr)
     3d4      3d4       c8     1         ./ra/fsp/src/rm_freertos_port/port.o:(.debug_addr)
     49c      49c       64     1         ./ra/fsp/src/rm_freertos_plus_tcp/NetworkInterface.o:(.debug_addr)
     500      500       8c     1         ./ra/fsp/src/r_ioport/r_ioport.o:(.debug_addr)
     58c      58c       70     1         ./ra/fsp/src/r_ether_phy/r_ether_phy.o:(.debug_addr)
     5fc      5fc       e8     1         ./ra/fsp/src/r_ether/r_ether.o:(.debug_addr)
     6e4      6e4       1c     1         ./ra/fsp/src/bsp/mcu/ra6m2/bsp_linker.o:(.debug_addr)
     700      700       90     1         ./ra/fsp/src/bsp/mcu/all/bsp_clocks.o:(.debug_addr)
     790      790       20     1         ./ra/fsp/src/bsp/mcu/all/bsp_common.o:(.debug_addr)
     7b0      7b0       20     1         ./ra/fsp/src/bsp/mcu/all/bsp_delay.o:(.debug_addr)
     7d0      7d0       1c     1         ./ra/fsp/src/bsp/mcu/all/bsp_group_irq.o:(.debug_addr)
     7ec      7ec        c     1         ./ra/fsp/src/bsp/mcu/all/bsp_io.o:(.debug_addr)
     7f8      7f8       14     1         ./ra/fsp/src/bsp/mcu/all/bsp_irq.o:(.debug_addr)
     80c      80c       2c     1         ./ra/fsp/src/bsp/mcu/all/bsp_register_protection.o:(.debug_addr)
     838      838       10     1         ./ra/fsp/src/bsp/mcu/all/bsp_sbrk.o:(.debug_addr)
     848      848       14     1         ./ra/fsp/src/bsp/mcu/all/bsp_sdram.o:(.debug_addr)
     85c      85c       1c     1         ./ra/fsp/src/bsp/cmsis/Device/RENESAS/Source/startup.o:(.debug_addr)
     878      878       2c     1         ./ra/fsp/src/bsp/cmsis/Device/RENESAS/Source/system.o:(.debug_addr)
     8a4      8a4       84     1         ./ra/aws/FreeRTOS/FreeRTOS/Source/portable/MemMang/heap_4.o:(.debug_addr)
     928      928       9c     1         ./ra/aws/FreeRTOS/FreeRTOS/Source/event_groups.o:(.debug_addr)
     9c4      9c4       1c     1         ./ra/aws/FreeRTOS/FreeRTOS/Source/list.o:(.debug_addr)
     9e0      9e0      19c     1         ./ra/aws/FreeRTOS/FreeRTOS/Source/queue.o:(.debug_addr)
     b7c      b7c      198     1         ./ra/aws/FreeRTOS/FreeRTOS/Source/stream_buffer.o:(.debug_addr)
     d14      d14      324     1         ./ra/aws/FreeRTOS/FreeRTOS/Source/tasks.o:(.debug_addr)
    1038     1038      118     1         ./ra/aws/FreeRTOS/FreeRTOS/Source/timers.o:(.debug_addr)
    1150     1150       74     1         ./ra/aws/FreeRTOS/FreeRTOS-Plus/Source/FreeRTOS-Plus-TCP/source/portable/BufferManagement/BufferAllocation_2.o:(.debug_addr)
    11c4     11c4       cc     1         ./ra/aws/FreeRTOS/FreeRTOS-Plus/Source/FreeRTOS-Plus-TCP/source/FreeRTOS_ARP.o:(.debug_addr)
    1290     1290       40     1         ./ra/aws/FreeRTOS/FreeRTOS-Plus/Source/FreeRTOS-Plus-TCP/source/FreeRTOS_BitConfig.o:(.debug_addr)
    12d0     12d0       70     1         ./ra/aws/FreeRTOS/FreeRTOS-Plus/Source/FreeRTOS-Plus-TCP/source/FreeRTOS_DNS.o:(.debug_addr)
    1340     1340       3c     1         ./ra/aws/FreeRTOS/FreeRTOS-Plus/Source/FreeRTOS-Plus-TCP/source/FreeRTOS_DNS_Cache.o:(.debug_addr)
    137c     137c       1c     1         ./ra/aws/FreeRTOS/FreeRTOS-Plus/Source/FreeRTOS-Plus-TCP/source/FreeRTOS_DNS_Networking.o:(.debug_addr)
    1398     1398       30     1         ./ra/aws/FreeRTOS/FreeRTOS-Plus/Source/FreeRTOS-Plus-TCP/source/FreeRTOS_DNS_Parser.o:(.debug_addr)
    13c8     13c8       24     1         ./ra/aws/FreeRTOS/FreeRTOS-Plus/Source/FreeRTOS-Plus-TCP/source/FreeRTOS_ICMP.o:(.debug_addr)
    13ec     13ec      164     1         ./ra/aws/FreeRTOS/FreeRTOS-Plus/Source/FreeRTOS-Plus-TCP/source/FreeRTOS_IP.o:(.debug_addr)
    1550     1550       a0     1         ./ra/aws/FreeRTOS/FreeRTOS-Plus/Source/FreeRTOS-Plus-TCP/source/FreeRTOS_IP_Timers.o:(.debug_addr)
    15f0     15f0       c0     1         ./ra/aws/FreeRTOS/FreeRTOS-Plus/Source/FreeRTOS-Plus-TCP/source/FreeRTOS_IP_Utils.o:(.debug_addr)
    16b0     16b0       30     1         ./ra/aws/FreeRTOS/FreeRTOS-Plus/Source/FreeRTOS-Plus-TCP/source/FreeRTOS_IPv4.o:(.debug_addr)
    16e0     16e0       18     1         ./ra/aws/FreeRTOS/FreeRTOS-Plus/Source/FreeRTOS-Plus-TCP/source/FreeRTOS_IPv4_Sockets.o:(.debug_addr)
    16f8     16f8       14     1         ./ra/aws/FreeRTOS/FreeRTOS-Plus/Source/FreeRTOS-Plus-TCP/source/FreeRTOS_IPv4_Utils.o:(.debug_addr)
    170c     170c       78     1         ./ra/aws/FreeRTOS/FreeRTOS-Plus/Source/FreeRTOS-Plus-TCP/source/FreeRTOS_Routing.o:(.debug_addr)
    1784     1784      1d4     1         ./ra/aws/FreeRTOS/FreeRTOS-Plus/Source/FreeRTOS-Plus-TCP/source/FreeRTOS_Sockets.o:(.debug_addr)
    1958     1958       5c     1         ./ra/aws/FreeRTOS/FreeRTOS-Plus/Source/FreeRTOS-Plus-TCP/source/FreeRTOS_Stream_Buffer.o:(.debug_addr)
    19b4     19b4       7c     1         ./ra/aws/FreeRTOS/FreeRTOS-Plus/Source/FreeRTOS-Plus-TCP/source/FreeRTOS_TCP_IP.o:(.debug_addr)
    1a30     1a30       1c     1         ./ra/aws/FreeRTOS/FreeRTOS-Plus/Source/FreeRTOS-Plus-TCP/source/FreeRTOS_TCP_Reception.o:(.debug_addr)
    1a4c     1a4c       24     1         ./ra/aws/FreeRTOS/FreeRTOS-Plus/Source/FreeRTOS-Plus-TCP/source/FreeRTOS_TCP_State_Handling.o:(.debug_addr)
    1a70     1a70       10     1         ./ra/aws/FreeRTOS/FreeRTOS-Plus/Source/FreeRTOS-Plus-TCP/source/FreeRTOS_TCP_State_Handling_IPv4.o:(.debug_addr)
    1a80     1a80       84     1         ./ra/aws/FreeRTOS/FreeRTOS-Plus/Source/FreeRTOS-Plus-TCP/source/FreeRTOS_TCP_Transmission.o:(.debug_addr)
    1b04     1b04       30     1         ./ra/aws/FreeRTOS/FreeRTOS-Plus/Source/FreeRTOS-Plus-TCP/source/FreeRTOS_TCP_Transmission_IPv4.o:(.debug_addr)
    1b34     1b34       10     1         ./ra/aws/FreeRTOS/FreeRTOS-Plus/Source/FreeRTOS-Plus-TCP/source/FreeRTOS_TCP_Utils.o:(.debug_addr)
    1b44     1b44        c     1         ./ra/aws/FreeRTOS/FreeRTOS-Plus/Source/FreeRTOS-Plus-TCP/source/FreeRTOS_TCP_Utils_IPv4.o:(.debug_addr)
    1b50     1b50       18     1         ./ra/aws/FreeRTOS/FreeRTOS-Plus/Source/FreeRTOS-Plus-TCP/source/FreeRTOS_TCP_WIN.o:(.debug_addr)
    1b68     1b68       3c     1         ./ra/aws/FreeRTOS/FreeRTOS-Plus/Source/FreeRTOS-Plus-TCP/source/FreeRTOS_Tiny_TCP.o:(.debug_addr)
    1ba4     1ba4       28     1         ./ra/aws/FreeRTOS/FreeRTOS-Plus/Source/FreeRTOS-Plus-TCP/source/FreeRTOS_UDP_IP.o:(.debug_addr)
    1bcc     1bcc       2c     1         ./ra/aws/FreeRTOS/FreeRTOS-Plus/Source/FreeRTOS-Plus-TCP/source/FreeRTOS_UDP_IPv4.o:(.debug_addr)
    1bf8     1bf8        c     1         D:\Renesas\RA\e2studio_v2023-07_fsp_v4.6.0\toolchains\llvm_arm\LLVM-ET-Arm-18.1.3-Windows-x86_64\bin\..\lib\clang-runtimes/arm-none-eabi/armv7em_hard_fpv4_sp_d16_exn_rtti\lib\libc.a(libc_stdlib_rand.c.o):(.debug_addr)
    1c04     1c04        c     1         D:\Renesas\RA\e2studio_v2023-07_fsp_v4.6.0\toolchains\llvm_arm\LLVM-ET-Arm-18.1.3-Windows-x86_64\bin\..\lib\clang-runtimes/arm-none-eabi/armv7em_hard_fpv4_sp_d16_exn_rtti\lib\libc.a(libc_stdlib_random.c.o):(.debug_addr)
    1c10     1c10        c     1         D:\Renesas\RA\e2studio_v2023-07_fsp_v4.6.0\toolchains\llvm_arm\LLVM-ET-Arm-18.1.3-Windows-x86_64\bin\..\lib\clang-runtimes/arm-none-eabi/armv7em_hard_fpv4_sp_d16_exn_rtti\lib\libc.a(libc_string_memcmp.c.o):(.debug_addr)
    1c1c     1c1c        c     1         D:\Renesas\RA\e2studio_v2023-07_fsp_v4.6.0\toolchains\llvm_arm\LLVM-ET-Arm-18.1.3-Windows-x86_64\bin\..\lib\clang-runtimes/arm-none-eabi/armv7em_hard_fpv4_sp_d16_exn_rtti\lib\libc.a(libc_string_strchr.c.o):(.debug_addr)
    1c28     1c28        c     1         D:\Renesas\RA\e2studio_v2023-07_fsp_v4.6.0\toolchains\llvm_arm\LLVM-ET-Arm-18.1.3-Windows-x86_64\bin\..\lib\clang-runtimes/arm-none-eabi/armv7em_hard_fpv4_sp_d16_exn_rtti\lib\libc.a(libc_string_strncpy.c.o):(.debug_addr)
    1c34     1c34        c     1         D:\Renesas\RA\e2studio_v2023-07_fsp_v4.6.0\toolchains\llvm_arm\LLVM-ET-Arm-18.1.3-Windows-x86_64\bin\..\lib\clang-runtimes/arm-none-eabi/armv7em_hard_fpv4_sp_d16_exn_rtti\lib\libc.a(libc_picolib_inittls.c.o):(.debug_addr)
    1c40     1c40        c     1         D:\Renesas\RA\e2studio_v2023-07_fsp_v4.6.0\toolchains\llvm_arm\LLVM-ET-Arm-18.1.3-Windows-x86_64\bin\..\lib\clang-runtimes/arm-none-eabi/armv7em_hard_fpv4_sp_d16_exn_rtti\lib\libc.a(libc_picolib_machine_arm_tls.c.o):(.debug_addr)
    1c4c     1c4c        c     1         D:\Renesas\RA\e2studio_v2023-07_fsp_v4.6.0\toolchains\llvm_arm\LLVM-ET-Arm-18.1.3-Windows-x86_64\bin\..\lib\clang-runtimes/arm-none-eabi/armv7em_hard_fpv4_sp_d16_exn_rtti\lib\libc.a(libc_tinystdio_snprintf.c.o):(.debug_addr)
    1c58     1c58        c     1         D:\Renesas\RA\e2studio_v2023-07_fsp_v4.6.0\toolchains\llvm_arm\LLVM-ET-Arm-18.1.3-Windows-x86_64\bin\..\lib\clang-runtimes/arm-none-eabi/armv7em_hard_fpv4_sp_d16_exn_rtti\lib\libc.a(libc_tinystdio_filestrput.c.o):(.debug_addr)
    1c64     1c64       48     1         D:\Renesas\RA\e2studio_v2023-07_fsp_v4.6.0\toolchains\llvm_arm\LLVM-ET-Arm-18.1.3-Windows-x86_64\bin\..\lib\clang-runtimes/arm-none-eabi/armv7em_hard_fpv4_sp_d16_exn_rtti\lib\libc.a(libc_tinystdio_vfprintf.c.o):(.debug_addr)
    1cac     1cac       1c     1         D:\Renesas\RA\e2studio_v2023-07_fsp_v4.6.0\toolchains\llvm_arm\LLVM-ET-Arm-18.1.3-Windows-x86_64\bin\..\lib\clang-runtimes/arm-none-eabi/armv7em_hard_fpv4_sp_d16_exn_rtti\lib\libc.a(libc_tinystdio_dtox_engine.c.o):(.debug_addr)
    1cc8     1cc8        c     1         D:\Renesas\RA\e2studio_v2023-07_fsp_v4.6.0\toolchains\llvm_arm\LLVM-ET-Arm-18.1.3-Windows-x86_64\bin\..\lib\clang-runtimes/arm-none-eabi/armv7em_hard_fpv4_sp_d16_exn_rtti\lib\libc.a(libc_string_strnlen.c.o):(.debug_addr)
    1cd4     1cd4       54     1         D:\Renesas\RA\e2studio_v2023-07_fsp_v4.6.0\toolchains\llvm_arm\LLVM-ET-Arm-18.1.3-Windows-x86_64\bin\..\lib\clang-runtimes/arm-none-eabi/armv7em_hard_fpv4_sp_d16_exn_rtti\lib\libc.a(libc_tinystdio_dtoa_ryu.c.o):(.debug_addr)
    1d28     1d28       10     1         D:\Renesas\RA\e2studio_v2023-07_fsp_v4.6.0\toolchains\llvm_arm\LLVM-ET-Arm-18.1.3-Windows-x86_64\bin\..\lib\clang-runtimes/arm-none-eabi/armv7em_hard_fpv4_sp_d16_exn_rtti\lib\libc.a(libc_tinystdio_ryu_log10.c.o):(.debug_addr)
    1d38     1d38        c     1         D:\Renesas\RA\e2studio_v2023-07_fsp_v4.6.0\toolchains\llvm_arm\LLVM-ET-Arm-18.1.3-Windows-x86_64\bin\..\lib\clang-runtimes/arm-none-eabi/armv7em_hard_fpv4_sp_d16_exn_rtti\lib\libc.a(libc_tinystdio_ryu_pow5bits.c.o):(.debug_addr)
    1d44     1d44       34     1         D:\Renesas\RA\e2studio_v2023-07_fsp_v4.6.0\toolchains\llvm_arm\LLVM-ET-Arm-18.1.3-Windows-x86_64\bin\..\lib\clang-runtimes/arm-none-eabi/armv7em_hard_fpv4_sp_d16_exn_rtti\lib\libc.a(libc_tinystdio_ryu_table.c.o):(.debug_addr)
    1d78     1d78       10     1         D:\Renesas\RA\e2studio_v2023-07_fsp_v4.6.0\toolchains\llvm_arm\LLVM-ET-Arm-18.1.3-Windows-x86_64\bin\..\lib\clang-runtimes/arm-none-eabi/armv7em_hard_fpv4_sp_d16_exn_rtti\lib\libc.a(libc_tinystdio_ryu_umul128.c.o):(.debug_addr)
    1d88     1d88       10     1         D:\Renesas\RA\e2studio_v2023-07_fsp_v4.6.0\toolchains\llvm_arm\LLVM-ET-Arm-18.1.3-Windows-x86_64\bin\..\lib\clang-runtimes/arm-none-eabi/armv7em_hard_fpv4_sp_d16_exn_rtti\lib\libc.a(aeabi_memset.c.o):(.debug_addr)
    1d98     1d98       10     1         D:\Renesas\RA\e2studio_v2023-07_fsp_v4.6.0\toolchains\llvm_arm\LLVM-ET-Arm-18.1.3-Windows-x86_64\bin\..\lib\clang-runtimes/arm-none-eabi/armv7em_hard_fpv4_sp_d16_exn_rtti\lib\libc.a(bzero.c.o):(.debug_addr)
    1da8     1da8        c     1         D:\Renesas\RA\e2studio_v2023-07_fsp_v4.6.0\toolchains\llvm_arm\LLVM-ET-Arm-18.1.3-Windows-x86_64\bin\..\lib\clang-runtimes/arm-none-eabi/armv7em_hard_fpv4_sp_d16_exn_rtti\lib\libc.a(memcpy.c.o):(.debug_addr)
    1db4     1db4        c     1         D:\Renesas\RA\e2studio_v2023-07_fsp_v4.6.0\toolchains\llvm_arm\LLVM-ET-Arm-18.1.3-Windows-x86_64\bin\..\lib\clang-runtimes/arm-none-eabi/armv7em_hard_fpv4_sp_d16_exn_rtti\lib\libc.a(memmove.c.o):(.debug_addr)
    1dc0     1dc0        c     1         D:\Renesas\RA\e2studio_v2023-07_fsp_v4.6.0\toolchains\llvm_arm\LLVM-ET-Arm-18.1.3-Windows-x86_64\bin\..\lib\clang-runtimes/arm-none-eabi/armv7em_hard_fpv4_sp_d16_exn_rtti\lib\libc.a(memset.c.o):(.debug_addr)
       0        0       29     1 .comment
       0        0       29     1         <internal>:(.comment)
       0        0       49     1 .ARM.attributes
       0        0       49     1         ./src/SEGGER_RTT/SEGGER_RTT.o:(.ARM.attributes)
       0        0     497c     4 .debug_frame
       0        0      44c     4         ./src/SEGGER_RTT/SEGGER_RTT.o:(.debug_frame)
     44c      44c       8c     4         ./src/SEGGER_RTT/SEGGER_RTT_printf.o:(.debug_frame)
     4d8      4d8       24     4         ./src/hal_warmstart.o:(.debug_frame)
     4fc      4fc       b8     4         ./src/new_thread0_entry.o:(.debug_frame)
     5b4      5b4       24     4         ./ra_gen/common_data.o:(.debug_frame)
     5d8      5d8       24     4         ./ra_gen/hal_data.o:(.debug_frame)
     5fc      5fc       80     4         ./ra_gen/main.o:(.debug_frame)
     67c      67c       50     4         ./ra_gen/new_thread0.o:(.debug_frame)
     6cc      6cc      16c     4         ./ra/fsp/src/rm_freertos_port/port.o:(.debug_frame)
     838      838      164     4         ./ra/fsp/src/rm_freertos_plus_tcp/NetworkInterface.o:(.debug_frame)
     99c      99c      178     4         ./ra/fsp/src/r_ioport/r_ioport.o:(.debug_frame)
     b14      b14      144     4         ./ra/fsp/src/r_ether_phy/r_ether_phy.o:(.debug_frame)
     c58      c58      1b4     4         ./ra/fsp/src/r_ether/r_ether.o:(.debug_frame)
     e0c      e0c      148     4         ./ra/fsp/src/bsp/mcu/all/bsp_clocks.o:(.debug_frame)
     f54      f54       44     4         ./ra/fsp/src/bsp/mcu/all/bsp_common.o:(.debug_frame)
     f98      f98       34     4         ./ra/fsp/src/bsp/mcu/all/bsp_delay.o:(.debug_frame)
     fcc      fcc       4c     4         ./ra/fsp/src/bsp/mcu/all/bsp_group_irq.o:(.debug_frame)
    1018     1018       24     4         ./ra/fsp/src/bsp/mcu/all/bsp_irq.o:(.debug_frame)
    103c     103c       40     4         ./ra/fsp/src/bsp/mcu/all/bsp_register_protection.o:(.debug_frame)
    107c     107c       30     4         ./ra/fsp/src/bsp/mcu/all/bsp_sbrk.o:(.debug_frame)
    10ac     10ac       68     4         ./ra/fsp/src/bsp/mcu/all/bsp_sdram.o:(.debug_frame)
    1114     1114       40     4         ./ra/fsp/src/bsp/cmsis/Device/RENESAS/Source/startup.o:(.debug_frame)
    1154     1154       4c     4         ./ra/fsp/src/bsp/cmsis/Device/RENESAS/Source/system.o:(.debug_frame)
    11a0     11a0       dc     4         ./ra/aws/FreeRTOS/FreeRTOS/Source/portable/MemMang/heap_4.o:(.debug_frame)
    127c     127c      16c     4         ./ra/aws/FreeRTOS/FreeRTOS/Source/event_groups.o:(.debug_frame)
    13e8     13e8       70     4         ./ra/aws/FreeRTOS/FreeRTOS/Source/list.o:(.debug_frame)
    1458     1458      398     4         ./ra/aws/FreeRTOS/FreeRTOS/Source/queue.o:(.debug_frame)
    17f0     17f0      320     4         ./ra/aws/FreeRTOS/FreeRTOS/Source/stream_buffer.o:(.debug_frame)
    1b10     1b10      608     4         ./ra/aws/FreeRTOS/FreeRTOS/Source/tasks.o:(.debug_frame)
    2118     2118      284     4         ./ra/aws/FreeRTOS/FreeRTOS/Source/timers.o:(.debug_frame)
    239c     239c       f0     4         ./ra/aws/FreeRTOS/FreeRTOS-Plus/Source/FreeRTOS-Plus-TCP/source/portable/BufferManagement/BufferAllocation_2.o:(.debug_frame)
    248c     248c      1f0     4         ./ra/aws/FreeRTOS/FreeRTOS-Plus/Source/FreeRTOS-Plus-TCP/source/FreeRTOS_ARP.o:(.debug_frame)
    267c     267c      140     4         ./ra/aws/FreeRTOS/FreeRTOS-Plus/Source/FreeRTOS-Plus-TCP/source/FreeRTOS_BitConfig.o:(.debug_frame)
    27bc     27bc       e8     4         ./ra/aws/FreeRTOS/FreeRTOS-Plus/Source/FreeRTOS-Plus-TCP/source/FreeRTOS_DNS.o:(.debug_frame)
    28a4     28a4       bc     4         ./ra/aws/FreeRTOS/FreeRTOS-Plus/Source/FreeRTOS-Plus-TCP/source/FreeRTOS_DNS_Cache.o:(.debug_frame)
    2960     2960       9c     4         ./ra/aws/FreeRTOS/FreeRTOS-Plus/Source/FreeRTOS-Plus-TCP/source/FreeRTOS_DNS_Networking.o:(.debug_frame)
    29fc     29fc       b4     4         ./ra/aws/FreeRTOS/FreeRTOS-Plus/Source/FreeRTOS-Plus-TCP/source/FreeRTOS_DNS_Parser.o:(.debug_frame)
    2ab0     2ab0       40     4         ./ra/aws/FreeRTOS/FreeRTOS-Plus/Source/FreeRTOS-Plus-TCP/source/FreeRTOS_ICMP.o:(.debug_frame)
    2af0     2af0      41c     4         ./ra/aws/FreeRTOS/FreeRTOS-Plus/Source/FreeRTOS-Plus-TCP/source/FreeRTOS_IP.o:(.debug_frame)
    2f0c     2f0c      138     4         ./ra/aws/FreeRTOS/FreeRTOS-Plus/Source/FreeRTOS-Plus-TCP/source/FreeRTOS_IP_Timers.o:(.debug_frame)
    3044     3044      1f4     4         ./ra/aws/FreeRTOS/FreeRTOS-Plus/Source/FreeRTOS-Plus-TCP/source/FreeRTOS_IP_Utils.o:(.debug_frame)
    3238     3238       9c     4         ./ra/aws/FreeRTOS/FreeRTOS-Plus/Source/FreeRTOS-Plus-TCP/source/FreeRTOS_IPv4.o:(.debug_frame)
    32d4     32d4       74     4         ./ra/aws/FreeRTOS/FreeRTOS-Plus/Source/FreeRTOS-Plus-TCP/source/FreeRTOS_IPv4_Sockets.o:(.debug_frame)
    3348     3348       48     4         ./ra/aws/FreeRTOS/FreeRTOS-Plus/Source/FreeRTOS-Plus-TCP/source/FreeRTOS_IPv4_Utils.o:(.debug_frame)
    3390     3390      198     4         ./ra/aws/FreeRTOS/FreeRTOS-Plus/Source/FreeRTOS-Plus-TCP/source/FreeRTOS_Routing.o:(.debug_frame)
    3528     3528      520     4         ./ra/aws/FreeRTOS/FreeRTOS-Plus/Source/FreeRTOS-Plus-TCP/source/FreeRTOS_Sockets.o:(.debug_frame)
    3a48     3a48      128     4         ./ra/aws/FreeRTOS/FreeRTOS-Plus/Source/FreeRTOS-Plus-TCP/source/FreeRTOS_Stream_Buffer.o:(.debug_frame)
    3b70     3b70      124     4         ./ra/aws/FreeRTOS/FreeRTOS-Plus/Source/FreeRTOS-Plus-TCP/source/FreeRTOS_TCP_IP.o:(.debug_frame)
    3c94     3c94       88     4         ./ra/aws/FreeRTOS/FreeRTOS-Plus/Source/FreeRTOS-Plus-TCP/source/FreeRTOS_TCP_Reception.o:(.debug_frame)
    3d1c     3d1c       d0     4         ./ra/aws/FreeRTOS/FreeRTOS-Plus/Source/FreeRTOS-Plus-TCP/source/FreeRTOS_TCP_State_Handling.o:(.debug_frame)
    3dec     3dec       40     4         ./ra/aws/FreeRTOS/FreeRTOS-Plus/Source/FreeRTOS-Plus-TCP/source/FreeRTOS_TCP_State_Handling_IPv4.o:(.debug_frame)
    3e2c     3e2c      22c     4         ./ra/aws/FreeRTOS/FreeRTOS-Plus/Source/FreeRTOS-Plus-TCP/source/FreeRTOS_TCP_Transmission.o:(.debug_frame)
    4058     4058       80     4         ./ra/aws/FreeRTOS/FreeRTOS-Plus/Source/FreeRTOS-Plus-TCP/source/FreeRTOS_TCP_Transmission_IPv4.o:(.debug_frame)
    40d8     40d8       24     4         ./ra/aws/FreeRTOS/FreeRTOS-Plus/Source/FreeRTOS-Plus-TCP/source/FreeRTOS_TCP_Utils.o:(.debug_frame)
    40fc     40fc       34     4         ./ra/aws/FreeRTOS/FreeRTOS-Plus/Source/FreeRTOS-Plus-TCP/source/FreeRTOS_TCP_Utils_IPv4.o:(.debug_frame)
    4130     4130       64     4         ./ra/aws/FreeRTOS/FreeRTOS-Plus/Source/FreeRTOS-Plus-TCP/source/FreeRTOS_TCP_WIN.o:(.debug_frame)
    4194     4194       d4     4         ./ra/aws/FreeRTOS/FreeRTOS-Plus/Source/FreeRTOS-Plus-TCP/source/FreeRTOS_Tiny_TCP.o:(.debug_frame)
    4268     4268       40     4         ./ra/aws/FreeRTOS/FreeRTOS-Plus/Source/FreeRTOS-Plus-TCP/source/FreeRTOS_UDP_IP.o:(.debug_frame)
    42a8     42a8       64     4         ./ra/aws/FreeRTOS/FreeRTOS-Plus/Source/FreeRTOS-Plus-TCP/source/FreeRTOS_UDP_IPv4.o:(.debug_frame)
    430c     430c       24     4         D:\Renesas\RA\e2studio_v2023-07_fsp_v4.6.0\toolchains\llvm_arm\LLVM-ET-Arm-18.1.3-Windows-x86_64\bin\..\lib\clang-runtimes/arm-none-eabi/armv7em_hard_fpv4_sp_d16_exn_rtti\lib\libc.a(libc_stdlib_rand.c.o):(.debug_frame)
    4330     4330       34     4         D:\Renesas\RA\e2studio_v2023-07_fsp_v4.6.0\toolchains\llvm_arm\LLVM-ET-Arm-18.1.3-Windows-x86_64\bin\..\lib\clang-runtimes/arm-none-eabi/armv7em_hard_fpv4_sp_d16_exn_rtti\lib\libc.a(libc_stdlib_random.c.o):(.debug_frame)
    4364     4364       34     4         D:\Renesas\RA\e2studio_v2023-07_fsp_v4.6.0\toolchains\llvm_arm\LLVM-ET-Arm-18.1.3-Windows-x86_64\bin\..\lib\clang-runtimes/arm-none-eabi/armv7em_hard_fpv4_sp_d16_exn_rtti\lib\libc.a(libc_string_memcmp.c.o):(.debug_frame)
    4398     4398       24     4         D:\Renesas\RA\e2studio_v2023-07_fsp_v4.6.0\toolchains\llvm_arm\LLVM-ET-Arm-18.1.3-Windows-x86_64\bin\..\lib\clang-runtimes/arm-none-eabi/armv7em_hard_fpv4_sp_d16_exn_rtti\lib\libc.a(libc_string_strchr.c.o):(.debug_frame)
    43bc     43bc       38     4         D:\Renesas\RA\e2studio_v2023-07_fsp_v4.6.0\toolchains\llvm_arm\LLVM-ET-Arm-18.1.3-Windows-x86_64\bin\..\lib\clang-runtimes/arm-none-eabi/armv7em_hard_fpv4_sp_d16_exn_rtti\lib\libc.a(libc_string_strncpy.c.o):(.debug_frame)
    43f4     43f4       34     4         D:\Renesas\RA\e2studio_v2023-07_fsp_v4.6.0\toolchains\llvm_arm\LLVM-ET-Arm-18.1.3-Windows-x86_64\bin\..\lib\clang-runtimes/arm-none-eabi/armv7em_hard_fpv4_sp_d16_exn_rtti\lib\libc.a(libc_picolib_inittls.c.o):(.debug_frame)
    4428     4428       24     4         D:\Renesas\RA\e2studio_v2023-07_fsp_v4.6.0\toolchains\llvm_arm\LLVM-ET-Arm-18.1.3-Windows-x86_64\bin\..\lib\clang-runtimes/arm-none-eabi/armv7em_hard_fpv4_sp_d16_exn_rtti\lib\libc.a(libc_picolib_machine_arm_tls.c.o):(.debug_frame)
    444c     444c       24     4         D:\Renesas\RA\e2studio_v2023-07_fsp_v4.6.0\toolchains\llvm_arm\LLVM-ET-Arm-18.1.3-Windows-x86_64\bin\..\lib\clang-runtimes/arm-none-eabi/armv7em_hard_fpv4_sp_d16_exn_rtti\lib\libc.a(libc_picolib_machine_arm_read_tp.S.o):(.debug_frame)
    4470     4470       3c     4         D:\Renesas\RA\e2studio_v2023-07_fsp_v4.6.0\toolchains\llvm_arm\LLVM-ET-Arm-18.1.3-Windows-x86_64\bin\..\lib\clang-runtimes/arm-none-eabi/armv7em_hard_fpv4_sp_d16_exn_rtti\lib\libc.a(libc_tinystdio_snprintf.c.o):(.debug_frame)
    44ac     44ac       24     4         D:\Renesas\RA\e2studio_v2023-07_fsp_v4.6.0\toolchains\llvm_arm\LLVM-ET-Arm-18.1.3-Windows-x86_64\bin\..\lib\clang-runtimes/arm-none-eabi/armv7em_hard_fpv4_sp_d16_exn_rtti\lib\libc.a(libc_tinystdio_filestrput.c.o):(.debug_frame)
    44d0     44d0       f0     4         D:\Renesas\RA\e2studio_v2023-07_fsp_v4.6.0\toolchains\llvm_arm\LLVM-ET-Arm-18.1.3-Windows-x86_64\bin\..\lib\clang-runtimes/arm-none-eabi/armv7em_hard_fpv4_sp_d16_exn_rtti\lib\libc.a(libc_tinystdio_vfprintf.c.o):(.debug_frame)
    45c0     45c0       40     4         D:\Renesas\RA\e2studio_v2023-07_fsp_v4.6.0\toolchains\llvm_arm\LLVM-ET-Arm-18.1.3-Windows-x86_64\bin\..\lib\clang-runtimes/arm-none-eabi/armv7em_hard_fpv4_sp_d16_exn_rtti\lib\libc.a(libc_tinystdio_dtox_engine.c.o):(.debug_frame)
    4600     4600       34     4         D:\Renesas\RA\e2studio_v2023-07_fsp_v4.6.0\toolchains\llvm_arm\LLVM-ET-Arm-18.1.3-Windows-x86_64\bin\..\lib\clang-runtimes/arm-none-eabi/armv7em_hard_fpv4_sp_d16_exn_rtti\lib\libc.a(libc_string_strnlen.c.o):(.debug_frame)
    4634     4634       d8     4         D:\Renesas\RA\e2studio_v2023-07_fsp_v4.6.0\toolchains\llvm_arm\LLVM-ET-Arm-18.1.3-Windows-x86_64\bin\..\lib\clang-runtimes/arm-none-eabi/armv7em_hard_fpv4_sp_d16_exn_rtti\lib\libc.a(libc_tinystdio_dtoa_ryu.c.o):(.debug_frame)
    470c     470c       34     4         D:\Renesas\RA\e2studio_v2023-07_fsp_v4.6.0\toolchains\llvm_arm\LLVM-ET-Arm-18.1.3-Windows-x86_64\bin\..\lib\clang-runtimes/arm-none-eabi/armv7em_hard_fpv4_sp_d16_exn_rtti\lib\libc.a(libc_tinystdio_ryu_log10.c.o):(.debug_frame)
    4740     4740       24     4         D:\Renesas\RA\e2studio_v2023-07_fsp_v4.6.0\toolchains\llvm_arm\LLVM-ET-Arm-18.1.3-Windows-x86_64\bin\..\lib\clang-runtimes/arm-none-eabi/armv7em_hard_fpv4_sp_d16_exn_rtti\lib\libc.a(libc_tinystdio_ryu_pow5bits.c.o):(.debug_frame)
    4764     4764       c0     4         D:\Renesas\RA\e2studio_v2023-07_fsp_v4.6.0\toolchains\llvm_arm\LLVM-ET-Arm-18.1.3-Windows-x86_64\bin\..\lib\clang-runtimes/arm-none-eabi/armv7em_hard_fpv4_sp_d16_exn_rtti\lib\libc.a(libc_tinystdio_ryu_table.c.o):(.debug_frame)
    4824     4824       60     4         D:\Renesas\RA\e2studio_v2023-07_fsp_v4.6.0\toolchains\llvm_arm\LLVM-ET-Arm-18.1.3-Windows-x86_64\bin\..\lib\clang-runtimes/arm-none-eabi/armv7em_hard_fpv4_sp_d16_exn_rtti\lib\libc.a(libc_tinystdio_ryu_umul128.c.o):(.debug_frame)
    4884     4884       24     4         D:\Renesas\RA\e2studio_v2023-07_fsp_v4.6.0\toolchains\llvm_arm\LLVM-ET-Arm-18.1.3-Windows-x86_64\bin\..\lib\clang-runtimes/arm-none-eabi/armv7em_hard_fpv4_sp_d16_exn_rtti\lib\libc.a(strcmp.S.o):(.debug_frame)
    48a8     48a8       24     4         D:\Renesas\RA\e2studio_v2023-07_fsp_v4.6.0\toolchains\llvm_arm\LLVM-ET-Arm-18.1.3-Windows-x86_64\bin\..\lib\clang-runtimes/arm-none-eabi/armv7em_hard_fpv4_sp_d16_exn_rtti\lib\libc.a(aeabi_memset.c.o):(.debug_frame)
    48cc     48cc       24     4         D:\Renesas\RA\e2studio_v2023-07_fsp_v4.6.0\toolchains\llvm_arm\LLVM-ET-Arm-18.1.3-Windows-x86_64\bin\..\lib\clang-runtimes/arm-none-eabi/armv7em_hard_fpv4_sp_d16_exn_rtti\lib\libc.a(bzero.c.o):(.debug_frame)
    48f0     48f0       34     4         D:\Renesas\RA\e2studio_v2023-07_fsp_v4.6.0\toolchains\llvm_arm\LLVM-ET-Arm-18.1.3-Windows-x86_64\bin\..\lib\clang-runtimes/arm-none-eabi/armv7em_hard_fpv4_sp_d16_exn_rtti\lib\libc.a(memcpy.c.o):(.debug_frame)
    4924     4924       34     4         D:\Renesas\RA\e2studio_v2023-07_fsp_v4.6.0\toolchains\llvm_arm\LLVM-ET-Arm-18.1.3-Windows-x86_64\bin\..\lib\clang-runtimes/arm-none-eabi/armv7em_hard_fpv4_sp_d16_exn_rtti\lib\libc.a(memmove.c.o):(.debug_frame)
    4958     4958       24     4         D:\Renesas\RA\e2studio_v2023-07_fsp_v4.6.0\toolchains\llvm_arm\LLVM-ET-Arm-18.1.3-Windows-x86_64\bin\..\lib\clang-runtimes/arm-none-eabi/armv7em_hard_fpv4_sp_d16_exn_rtti\lib\libc.a(memset.c.o):(.debug_frame)
       0        0    159e1     1 .debug_line
       0        0     1434     1         ./src/SEGGER_RTT/SEGGER_RTT.o:(.debug_line)
    1434     1434      652     1         ./src/SEGGER_RTT/SEGGER_RTT_printf.o:(.debug_line)
    1a86     1a86      119     1         ./src/hal_warmstart.o:(.debug_line)
    1b9f     1b9f      21c     1         ./src/new_thread0_entry.o:(.debug_line)
    1dbb     1dbb      1a3     1         ./ra_gen/common_data.o:(.debug_line)
    1f5e     1f5e       81     1         ./ra_gen/hal_data.o:(.debug_line)
    1fdf     1fdf      1cd     1         ./ra_gen/main.o:(.debug_line)
    21ac     21ac      141     1         ./ra_gen/new_thread0.o:(.debug_line)
    22ed     22ed       bc     1         ./ra_gen/pin_data.o:(.debug_line)
    23a9     23a9       9f     1         ./ra_gen/vector_data.o:(.debug_line)
    2448     2448      457     1         ./ra/fsp/src/rm_freertos_port/port.o:(.debug_line)
    289f     289f      468     1         ./ra/fsp/src/rm_freertos_plus_tcp/NetworkInterface.o:(.debug_line)
    2d07     2d07      583     1         ./ra/fsp/src/r_ioport/r_ioport.o:(.debug_line)
    328a     328a      90d     1         ./ra/fsp/src/r_ether_phy/r_ether_phy.o:(.debug_line)
    3b97     3b97      dc8     1         ./ra/fsp/src/r_ether/r_ether.o:(.debug_line)
    495f     495f       a7     1         ./ra/fsp/src/bsp/mcu/ra6m2/bsp_linker.o:(.debug_line)
    4a06     4a06      552     1         ./ra/fsp/src/bsp/mcu/all/bsp_clocks.o:(.debug_line)
    4f58     4f58      105     1         ./ra/fsp/src/bsp/mcu/all/bsp_common.o:(.debug_line)
    505d     505d      151     1         ./ra/fsp/src/bsp/mcu/all/bsp_delay.o:(.debug_line)
    51ae     51ae      137     1         ./ra/fsp/src/bsp/mcu/all/bsp_group_irq.o:(.debug_line)
    52e5     52e5       8e     1         ./ra/fsp/src/bsp/mcu/all/bsp_io.o:(.debug_line)
    5373     5373       f1     1         ./ra/fsp/src/bsp/mcu/all/bsp_irq.o:(.debug_line)
    5464     5464      128     1         ./ra/fsp/src/bsp/mcu/all/bsp_register_protection.o:(.debug_line)
    558c     558c      106     1         ./ra/fsp/src/bsp/mcu/all/bsp_sbrk.o:(.debug_line)
    5692     5692      1df     1         ./ra/fsp/src/bsp/mcu/all/bsp_sdram.o:(.debug_line)
    5871     5871       b9     1         ./ra/fsp/src/bsp/cmsis/Device/RENESAS/Source/startup.o:(.debug_line)
    592a     592a      1a3     1         ./ra/fsp/src/bsp/cmsis/Device/RENESAS/Source/system.o:(.debug_line)
    5acd     5acd      41d     1         ./ra/aws/FreeRTOS/FreeRTOS/Source/portable/MemMang/heap_4.o:(.debug_line)
    5eea     5eea      477     1         ./ra/aws/FreeRTOS/FreeRTOS/Source/event_groups.o:(.debug_line)
    6361     6361      1d1     1         ./ra/aws/FreeRTOS/FreeRTOS/Source/list.o:(.debug_line)
    6532     6532      dfb     1         ./ra/aws/FreeRTOS/FreeRTOS/Source/queue.o:(.debug_line)
    732d     732d      a60     1         ./ra/aws/FreeRTOS/FreeRTOS/Source/stream_buffer.o:(.debug_line)
    7d8d     7d8d     150c     1         ./ra/aws/FreeRTOS/FreeRTOS/Source/tasks.o:(.debug_line)
    9299     9299      73c     1         ./ra/aws/FreeRTOS/FreeRTOS/Source/timers.o:(.debug_line)
    99d5     99d5      46a     1         ./ra/aws/FreeRTOS/FreeRTOS-Plus/Source/FreeRTOS-Plus-TCP/source/portable/BufferManagement/BufferAllocation_2.o:(.debug_line)
    9e3f     9e3f      963     1         ./ra/aws/FreeRTOS/FreeRTOS-Plus/Source/FreeRTOS-Plus-TCP/source/FreeRTOS_ARP.o:(.debug_line)
    a7a2     a7a2      47e     1         ./ra/aws/FreeRTOS/FreeRTOS-Plus/Source/FreeRTOS-Plus-TCP/source/FreeRTOS_BitConfig.o:(.debug_line)
    ac20     ac20      64e     1         ./ra/aws/FreeRTOS/FreeRTOS-Plus/Source/FreeRTOS-Plus-TCP/source/FreeRTOS_DNS.o:(.debug_line)
    b26e     b26e      301     1         ./ra/aws/FreeRTOS/FreeRTOS-Plus/Source/FreeRTOS-Plus-TCP/source/FreeRTOS_DNS_Cache.o:(.debug_line)
    b56f     b56f      284     1         ./ra/aws/FreeRTOS/FreeRTOS-Plus/Source/FreeRTOS-Plus-TCP/source/FreeRTOS_DNS_Networking.o:(.debug_line)
    b7f3     b7f3      6a0     1         ./ra/aws/FreeRTOS/FreeRTOS-Plus/Source/FreeRTOS-Plus-TCP/source/FreeRTOS_DNS_Parser.o:(.debug_line)
    be93     be93      237     1         ./ra/aws/FreeRTOS/FreeRTOS-Plus/Source/FreeRTOS-Plus-TCP/source/FreeRTOS_ICMP.o:(.debug_line)
    c0ca     c0ca      eea     1         ./ra/aws/FreeRTOS/FreeRTOS-Plus/Source/FreeRTOS-Plus-TCP/source/FreeRTOS_IP.o:(.debug_line)
    cfb4     cfb4      604     1         ./ra/aws/FreeRTOS/FreeRTOS-Plus/Source/FreeRTOS-Plus-TCP/source/FreeRTOS_IP_Timers.o:(.debug_line)
    d5b8     d5b8      77c     1         ./ra/aws/FreeRTOS/FreeRTOS-Plus/Source/FreeRTOS-Plus-TCP/source/FreeRTOS_IP_Utils.o:(.debug_line)
    dd34     dd34      377     1         ./ra/aws/FreeRTOS/FreeRTOS-Plus/Source/FreeRTOS-Plus-TCP/source/FreeRTOS_IPv4.o:(.debug_line)
    e0ab     e0ab      2a2     1         ./ra/aws/FreeRTOS/FreeRTOS-Plus/Source/FreeRTOS-Plus-TCP/source/FreeRTOS_IPv4_Sockets.o:(.debug_line)
    e34d     e34d      20b     1         ./ra/aws/FreeRTOS/FreeRTOS-Plus/Source/FreeRTOS-Plus-TCP/source/FreeRTOS_IPv4_Utils.o:(.debug_line)
    e558     e558      6da     1         ./ra/aws/FreeRTOS/FreeRTOS-Plus/Source/FreeRTOS-Plus-TCP/source/FreeRTOS_Routing.o:(.debug_line)
    ec32     ec32     1a1a     1         ./ra/aws/FreeRTOS/FreeRTOS-Plus/Source/FreeRTOS-Plus-TCP/source/FreeRTOS_Sockets.o:(.debug_line)
   1064c    1064c      44a     1         ./ra/aws/FreeRTOS/FreeRTOS-Plus/Source/FreeRTOS-Plus-TCP/source/FreeRTOS_Stream_Buffer.o:(.debug_line)
   10a96    10a96      775     1         ./ra/aws/FreeRTOS/FreeRTOS-Plus/Source/FreeRTOS-Plus-TCP/source/FreeRTOS_TCP_IP.o:(.debug_line)
   1120b    1120b      398     1         ./ra/aws/FreeRTOS/FreeRTOS-Plus/Source/FreeRTOS-Plus-TCP/source/FreeRTOS_TCP_Reception.o:(.debug_line)
   115a3    115a3      745     1         ./ra/aws/FreeRTOS/FreeRTOS-Plus/Source/FreeRTOS-Plus-TCP/source/FreeRTOS_TCP_State_Handling.o:(.debug_line)
   11ce8    11ce8      2c3     1         ./ra/aws/FreeRTOS/FreeRTOS-Plus/Source/FreeRTOS-Plus-TCP/source/FreeRTOS_TCP_State_Handling_IPv4.o:(.debug_line)
   11fab    11fab      8a6     1         ./ra/aws/FreeRTOS/FreeRTOS-Plus/Source/FreeRTOS-Plus-TCP/source/FreeRTOS_TCP_Transmission.o:(.debug_line)
   12851    12851      42a     1         ./ra/aws/FreeRTOS/FreeRTOS-Plus/Source/FreeRTOS-Plus-TCP/source/FreeRTOS_TCP_Transmission_IPv4.o:(.debug_line)
   12c7b    12c7b      1cb     1         ./ra/aws/FreeRTOS/FreeRTOS-Plus/Source/FreeRTOS-Plus-TCP/source/FreeRTOS_TCP_Utils.o:(.debug_line)
   12e46    12e46      1d7     1         ./ra/aws/FreeRTOS/FreeRTOS-Plus/Source/FreeRTOS-Plus-TCP/source/FreeRTOS_TCP_Utils_IPv4.o:(.debug_line)
   1301d    1301d      1bc     1         ./ra/aws/FreeRTOS/FreeRTOS-Plus/Source/FreeRTOS-Plus-TCP/source/FreeRTOS_TCP_WIN.o:(.debug_line)
   131d9    131d9      2d3     1         ./ra/aws/FreeRTOS/FreeRTOS-Plus/Source/FreeRTOS-Plus-TCP/source/FreeRTOS_Tiny_TCP.o:(.debug_line)
   134ac    134ac      1c8     1         ./ra/aws/FreeRTOS/FreeRTOS-Plus/Source/FreeRTOS-Plus-TCP/source/FreeRTOS_UDP_IP.o:(.debug_line)
   13674    13674      38e     1         ./ra/aws/FreeRTOS/FreeRTOS-Plus/Source/FreeRTOS-Plus-TCP/source/FreeRTOS_UDP_IPv4.o:(.debug_line)
   13a02    13a02       43     1         D:\Renesas\RA\e2studio_v2023-07_fsp_v4.6.0\toolchains\llvm_arm\LLVM-ET-Arm-18.1.3-Windows-x86_64\bin\..\lib\clang-runtimes/arm-none-eabi/armv7em_hard_fpv4_sp_d16_exn_rtti\lib\libc.a(libc_errno_errno.c.o):(.debug_line)
   13a45    13a45       71     1         D:\Renesas\RA\e2studio_v2023-07_fsp_v4.6.0\toolchains\llvm_arm\LLVM-ET-Arm-18.1.3-Windows-x86_64\bin\..\lib\clang-runtimes/arm-none-eabi/armv7em_hard_fpv4_sp_d16_exn_rtti\lib\libc.a(libc_stdlib_rand.c.o):(.debug_line)
   13ab6    13ab6       7b     1         D:\Renesas\RA\e2studio_v2023-07_fsp_v4.6.0\toolchains\llvm_arm\LLVM-ET-Arm-18.1.3-Windows-x86_64\bin\..\lib\clang-runtimes/arm-none-eabi/armv7em_hard_fpv4_sp_d16_exn_rtti\lib\libc.a(libc_stdlib_random.c.o):(.debug_line)
   13b31    13b31       9a     1         D:\Renesas\RA\e2studio_v2023-07_fsp_v4.6.0\toolchains\llvm_arm\LLVM-ET-Arm-18.1.3-Windows-x86_64\bin\..\lib\clang-runtimes/arm-none-eabi/armv7em_hard_fpv4_sp_d16_exn_rtti\lib\libc.a(libc_string_memcmp.c.o):(.debug_line)
   13bcb    13bcb       6f     1         D:\Renesas\RA\e2studio_v2023-07_fsp_v4.6.0\toolchains\llvm_arm\LLVM-ET-Arm-18.1.3-Windows-x86_64\bin\..\lib\clang-runtimes/arm-none-eabi/armv7em_hard_fpv4_sp_d16_exn_rtti\lib\libc.a(libc_string_strchr.c.o):(.debug_line)
   13c3a    13c3a       9d     1         D:\Renesas\RA\e2studio_v2023-07_fsp_v4.6.0\toolchains\llvm_arm\LLVM-ET-Arm-18.1.3-Windows-x86_64\bin\..\lib\clang-runtimes/arm-none-eabi/armv7em_hard_fpv4_sp_d16_exn_rtti\lib\libc.a(libc_string_strncpy.c.o):(.debug_line)
   13cd7    13cd7       a2     1         D:\Renesas\RA\e2studio_v2023-07_fsp_v4.6.0\toolchains\llvm_arm\LLVM-ET-Arm-18.1.3-Windows-x86_64\bin\..\lib\clang-runtimes/arm-none-eabi/armv7em_hard_fpv4_sp_d16_exn_rtti\lib\libc.a(libc_picolib_inittls.c.o):(.debug_line)
   13d79    13d79       ad     1         D:\Renesas\RA\e2studio_v2023-07_fsp_v4.6.0\toolchains\llvm_arm\LLVM-ET-Arm-18.1.3-Windows-x86_64\bin\..\lib\clang-runtimes/arm-none-eabi/armv7em_hard_fpv4_sp_d16_exn_rtti\lib\libc.a(libc_picolib_machine_arm_tls.c.o):(.debug_line)
   13e26    13e26       45     1         D:\Renesas\RA\e2studio_v2023-07_fsp_v4.6.0\toolchains\llvm_arm\LLVM-ET-Arm-18.1.3-Windows-x86_64\bin\..\lib\clang-runtimes/arm-none-eabi/armv7em_hard_fpv4_sp_d16_exn_rtti\lib\libc.a(libc_picolib_machine_arm_read_tp.S.o):(.debug_line)
   13e6b    13e6b      116     1         D:\Renesas\RA\e2studio_v2023-07_fsp_v4.6.0\toolchains\llvm_arm\LLVM-ET-Arm-18.1.3-Windows-x86_64\bin\..\lib\clang-runtimes/arm-none-eabi/armv7em_hard_fpv4_sp_d16_exn_rtti\lib\libc.a(libc_tinystdio_snprintf.c.o):(.debug_line)
   13f81    13f81       e0     1         D:\Renesas\RA\e2studio_v2023-07_fsp_v4.6.0\toolchains\llvm_arm\LLVM-ET-Arm-18.1.3-Windows-x86_64\bin\..\lib\clang-runtimes/arm-none-eabi/armv7em_hard_fpv4_sp_d16_exn_rtti\lib\libc.a(libc_tinystdio_filestrput.c.o):(.debug_line)
   14061    14061      9d0     1         D:\Renesas\RA\e2studio_v2023-07_fsp_v4.6.0\toolchains\llvm_arm\LLVM-ET-Arm-18.1.3-Windows-x86_64\bin\..\lib\clang-runtimes/arm-none-eabi/armv7em_hard_fpv4_sp_d16_exn_rtti\lib\libc.a(libc_tinystdio_vfprintf.c.o):(.debug_line)
   14a31    14a31      1a7     1         D:\Renesas\RA\e2studio_v2023-07_fsp_v4.6.0\toolchains\llvm_arm\LLVM-ET-Arm-18.1.3-Windows-x86_64\bin\..\lib\clang-runtimes/arm-none-eabi/armv7em_hard_fpv4_sp_d16_exn_rtti\lib\libc.a(libc_tinystdio_dtox_engine.c.o):(.debug_line)
   14bd8    14bd8       91     1         D:\Renesas\RA\e2studio_v2023-07_fsp_v4.6.0\toolchains\llvm_arm\LLVM-ET-Arm-18.1.3-Windows-x86_64\bin\..\lib\clang-runtimes/arm-none-eabi/armv7em_hard_fpv4_sp_d16_exn_rtti\lib\libc.a(libc_string_strnlen.c.o):(.debug_line)
   14c69    14c69      5b4     1         D:\Renesas\RA\e2studio_v2023-07_fsp_v4.6.0\toolchains\llvm_arm\LLVM-ET-Arm-18.1.3-Windows-x86_64\bin\..\lib\clang-runtimes/arm-none-eabi/armv7em_hard_fpv4_sp_d16_exn_rtti\lib\libc.a(libc_tinystdio_dtoa_ryu.c.o):(.debug_line)
   1521d    1521d       b3     1         D:\Renesas\RA\e2studio_v2023-07_fsp_v4.6.0\toolchains\llvm_arm\LLVM-ET-Arm-18.1.3-Windows-x86_64\bin\..\lib\clang-runtimes/arm-none-eabi/armv7em_hard_fpv4_sp_d16_exn_rtti\lib\libc.a(libc_tinystdio_ryu_log10.c.o):(.debug_line)
   152d0    152d0       99     1         D:\Renesas\RA\e2studio_v2023-07_fsp_v4.6.0\toolchains\llvm_arm\LLVM-ET-Arm-18.1.3-Windows-x86_64\bin\..\lib\clang-runtimes/arm-none-eabi/armv7em_hard_fpv4_sp_d16_exn_rtti\lib\libc.a(libc_tinystdio_ryu_pow5bits.c.o):(.debug_line)
   15369    15369      1dd     1         D:\Renesas\RA\e2studio_v2023-07_fsp_v4.6.0\toolchains\llvm_arm\LLVM-ET-Arm-18.1.3-Windows-x86_64\bin\..\lib\clang-runtimes/arm-none-eabi/armv7em_hard_fpv4_sp_d16_exn_rtti\lib\libc.a(libc_tinystdio_ryu_table.c.o):(.debug_line)
   15546    15546       e1     1         D:\Renesas\RA\e2studio_v2023-07_fsp_v4.6.0\toolchains\llvm_arm\LLVM-ET-Arm-18.1.3-Windows-x86_64\bin\..\lib\clang-runtimes/arm-none-eabi/armv7em_hard_fpv4_sp_d16_exn_rtti\lib\libc.a(libc_tinystdio_ryu_umul128.c.o):(.debug_line)
   15627    15627       50     1         D:\Renesas\RA\e2studio_v2023-07_fsp_v4.6.0\toolchains\llvm_arm\LLVM-ET-Arm-18.1.3-Windows-x86_64\bin\..\lib\clang-runtimes/arm-none-eabi/armv7em_hard_fpv4_sp_d16_exn_rtti\lib\libc.a(strcmp.S.o):(.debug_line)
   15677    15677       8a     1         D:\Renesas\RA\e2studio_v2023-07_fsp_v4.6.0\toolchains\llvm_arm\LLVM-ET-Arm-18.1.3-Windows-x86_64\bin\..\lib\clang-runtimes/arm-none-eabi/armv7em_hard_fpv4_sp_d16_exn_rtti\lib\libc.a(aeabi_memset.c.o):(.debug_line)
   15701    15701       a1     1         D:\Renesas\RA\e2studio_v2023-07_fsp_v4.6.0\toolchains\llvm_arm\LLVM-ET-Arm-18.1.3-Windows-x86_64\bin\..\lib\clang-runtimes/arm-none-eabi/armv7em_hard_fpv4_sp_d16_exn_rtti\lib\libc.a(bzero.c.o):(.debug_line)
   157a2    157a2       9e     1         D:\Renesas\RA\e2studio_v2023-07_fsp_v4.6.0\toolchains\llvm_arm\LLVM-ET-Arm-18.1.3-Windows-x86_64\bin\..\lib\clang-runtimes/arm-none-eabi/armv7em_hard_fpv4_sp_d16_exn_rtti\lib\libc.a(memcpy.c.o):(.debug_line)
   15840    15840       bc     1         D:\Renesas\RA\e2studio_v2023-07_fsp_v4.6.0\toolchains\llvm_arm\LLVM-ET-Arm-18.1.3-Windows-x86_64\bin\..\lib\clang-runtimes/arm-none-eabi/armv7em_hard_fpv4_sp_d16_exn_rtti\lib\libc.a(memmove.c.o):(.debug_line)
   158fc    158fc       96     1         D:\Renesas\RA\e2studio_v2023-07_fsp_v4.6.0\toolchains\llvm_arm\LLVM-ET-Arm-18.1.3-Windows-x86_64\bin\..\lib\clang-runtimes/arm-none-eabi/armv7em_hard_fpv4_sp_d16_exn_rtti\lib\libc.a(memset.c.o):(.debug_line)
   15992    15992       4f     1         D:\Renesas\RA\e2studio_v2023-07_fsp_v4.6.0\toolchains\llvm_arm\LLVM-ET-Arm-18.1.3-Windows-x86_64\bin\..\lib\clang-runtimes/arm-none-eabi/armv7em_hard_fpv4_sp_d16_exn_rtti\lib\libc.a(strlen.S.o):(.debug_line)
       0        0     33da     1 .debug_line_str
       0        0     33da     1         <internal>:(.debug_line_str)
       0        0       60     1 .debug_aranges
       0        0       20     1         D:\Renesas\RA\e2studio_v2023-07_fsp_v4.6.0\toolchains\llvm_arm\LLVM-ET-Arm-18.1.3-Windows-x86_64\bin\..\lib\clang-runtimes/arm-none-eabi/armv7em_hard_fpv4_sp_d16_exn_rtti\lib\libc.a(libc_picolib_machine_arm_read_tp.S.o):(.debug_aranges)
      20       20       20     1         D:\Renesas\RA\e2studio_v2023-07_fsp_v4.6.0\toolchains\llvm_arm\LLVM-ET-Arm-18.1.3-Windows-x86_64\bin\..\lib\clang-runtimes/arm-none-eabi/armv7em_hard_fpv4_sp_d16_exn_rtti\lib\libc.a(strcmp.S.o):(.debug_aranges)
      40       40       20     1         D:\Renesas\RA\e2studio_v2023-07_fsp_v4.6.0\toolchains\llvm_arm\LLVM-ET-Arm-18.1.3-Windows-x86_64\bin\..\lib\clang-runtimes/arm-none-eabi/armv7em_hard_fpv4_sp_d16_exn_rtti\lib\libc.a(strlen.S.o):(.debug_aranges)
       0        0     4490     4 .symtab
       0        0     4490     4         <internal>:(.symtab)
       0        0      4d6     1 .shstrtab
       0        0      4d6     1         <internal>:(.shstrtab)
       0        0     420a     1 .strtab
       0        0     420a     1         <internal>:(.strtab)

Cross Reference Table

Symbol                                            File
_SEGGER_RTT                                       ./src/SEGGER_RTT/SEGGER_RTT.o
__aeabi_memclr4                                   D:\Renesas\RA\e2studio_v2023-07_fsp_v4.6.0\toolchains\llvm_arm\LLVM-ET-Arm-18.1.3-Windows-x86_64\bin\..\lib\clang-runtimes/arm-none-eabi/armv7em_hard_fpv4_sp_d16_exn_rtti\lib\libc.a(bzero.c.o)
                                                  ./src/SEGGER_RTT/SEGGER_RTT.o
                                                  ./ra/fsp/src/r_ether/r_ether.o
                                                  ./ra/fsp/src/bsp/cmsis/Device/RENESAS/Source/system.o
                                                  ./ra/aws/FreeRTOS/FreeRTOS/Source/stream_buffer.o
                                                  ./ra/aws/FreeRTOS/FreeRTOS-Plus/Source/FreeRTOS-Plus-TCP/source/FreeRTOS_ARP.o
                                                  ./ra/aws/FreeRTOS/FreeRTOS-Plus/Source/FreeRTOS-Plus-TCP/source/FreeRTOS_DNS.o
                                                  ./ra/aws/FreeRTOS/FreeRTOS-Plus/Source/FreeRTOS-Plus-TCP/source/FreeRTOS_DNS_Cache.o
                                                  ./ra/aws/FreeRTOS/FreeRTOS-Plus/Source/FreeRTOS-Plus-TCP/source/FreeRTOS_DNS_Parser.o
                                                  ./ra/aws/FreeRTOS/FreeRTOS-Plus/Source/FreeRTOS-Plus-TCP/source/FreeRTOS_Routing.o
                                                  ./ra/aws/FreeRTOS/FreeRTOS-Plus/Source/FreeRTOS-Plus-TCP/source/FreeRTOS_Sockets.o
                                                  ./ra/aws/FreeRTOS/FreeRTOS-Plus/Source/FreeRTOS-Plus-TCP/source/FreeRTOS_TCP_Transmission_IPv4.o
__aeabi_memcpy                                    D:\Renesas\RA\e2studio_v2023-07_fsp_v4.6.0\toolchains\llvm_arm\LLVM-ET-Arm-18.1.3-Windows-x86_64\bin\..\lib\clang-runtimes/arm-none-eabi/armv7em_hard_fpv4_sp_d16_exn_rtti\lib\libc.a(memcpy.c.o)
                                                  ./src/SEGGER_RTT/SEGGER_RTT.o
                                                  ./ra/fsp/src/r_ether/r_ether.o
                                                  ./ra/aws/FreeRTOS/FreeRTOS/Source/queue.o
                                                  ./ra/aws/FreeRTOS/FreeRTOS/Source/stream_buffer.o
                                                  ./ra/aws/FreeRTOS/FreeRTOS-Plus/Source/FreeRTOS-Plus-TCP/source/portable/BufferManagement/BufferAllocation_2.o
                                                  ./ra/aws/FreeRTOS/FreeRTOS-Plus/Source/FreeRTOS-Plus-TCP/source/FreeRTOS_ARP.o
                                                  ./ra/aws/FreeRTOS/FreeRTOS-Plus/Source/FreeRTOS-Plus-TCP/source/FreeRTOS_BitConfig.o
                                                  ./ra/aws/FreeRTOS/FreeRTOS-Plus/Source/FreeRTOS-Plus-TCP/source/FreeRTOS_DNS.o
                                                  ./ra/aws/FreeRTOS/FreeRTOS-Plus/Source/FreeRTOS-Plus-TCP/source/FreeRTOS_DNS_Parser.o
                                                  ./ra/aws/FreeRTOS/FreeRTOS-Plus/Source/FreeRTOS-Plus-TCP/source/FreeRTOS_IP.o
                                                  ./ra/aws/FreeRTOS/FreeRTOS-Plus/Source/FreeRTOS-Plus-TCP/source/FreeRTOS_IP_Utils.o
                                                  ./ra/aws/FreeRTOS/FreeRTOS-Plus/Source/FreeRTOS-Plus-TCP/source/FreeRTOS_Routing.o
                                                  ./ra/aws/FreeRTOS/FreeRTOS-Plus/Source/FreeRTOS-Plus-TCP/source/FreeRTOS_Sockets.o
                                                  ./ra/aws/FreeRTOS/FreeRTOS-Plus/Source/FreeRTOS-Plus-TCP/source/FreeRTOS_Stream_Buffer.o
                                                  ./ra/aws/FreeRTOS/FreeRTOS-Plus/Source/FreeRTOS-Plus-TCP/source/FreeRTOS_TCP_IP.o
                                                  ./ra/aws/FreeRTOS/FreeRTOS-Plus/Source/FreeRTOS-Plus-TCP/source/FreeRTOS_TCP_State_Handling_IPv4.o
                                                  ./ra/aws/FreeRTOS/FreeRTOS-Plus/Source/FreeRTOS-Plus-TCP/source/FreeRTOS_TCP_Transmission.o
                                                  ./ra/aws/FreeRTOS/FreeRTOS-Plus/Source/FreeRTOS-Plus-TCP/source/FreeRTOS_TCP_Transmission_IPv4.o
                                                  ./ra/aws/FreeRTOS/FreeRTOS-Plus/Source/FreeRTOS-Plus-TCP/source/FreeRTOS_UDP_IPv4.o
                                                  D:\Renesas\RA\e2studio_v2023-07_fsp_v4.6.0\toolchains\llvm_arm\LLVM-ET-Arm-18.1.3-Windows-x86_64\bin\..\lib\clang-runtimes/arm-none-eabi/armv7em_hard_fpv4_sp_d16_exn_rtti\lib\libc.a(libc_picolib_inittls.c.o)
SEGGER_RTT_WriteNoLock                            ./src/SEGGER_RTT/SEGGER_RTT.o
SEGGER_RTT_Write                                  ./src/SEGGER_RTT/SEGGER_RTT.o
                                                  ./src/SEGGER_RTT/SEGGER_RTT_printf.o
SEGGER_RTT_vprintf                                ./src/SEGGER_RTT/SEGGER_RTT_printf.o
SEGGER_RTT_printf                                 ./src/SEGGER_RTT/SEGGER_RTT_printf.o
                                                  ./src/new_thread0_entry.o
R_BSP_WarmStart                                   ./src/hal_warmstart.o
                                                  ./ra/fsp/src/bsp/cmsis/Device/RENESAS/Source/system.o
g_ioport_ctrl                                     ./ra_gen/common_data.o
                                                  ./src/hal_warmstart.o
g_bsp_pin_cfg                                     ./ra_gen/pin_data.o
                                                  ./src/hal_warmstart.o
                                                  ./ra_gen/common_data.o
R_IOPORT_Open                                     ./ra/fsp/src/r_ioport/r_ioport.o
                                                  ./src/hal_warmstart.o
vApplicationPingReplyHook                         ./src/new_thread0_entry.o
                                                  ./ra/aws/FreeRTOS/FreeRTOS-Plus/Source/FreeRTOS-Plus-TCP/source/FreeRTOS_ICMP.o
g_ping_data                                       ./src/new_thread0_entry.o
print_ipconfig()                                  ./src/new_thread0_entry.o
g_dhcp_in_use                                     ./src/new_thread0_entry.o
FreeRTOS_IsNetworkUp                              ./ra/aws/FreeRTOS/FreeRTOS-Plus/Source/FreeRTOS-Plus-TCP/source/FreeRTOS_IP.o
                                                  ./src/new_thread0_entry.o
g_ether0                                          ./ra_gen/common_data.o
                                                  ./src/new_thread0_entry.o
R_ETHER_LinkProcess                               ./ra/fsp/src/r_ether/r_ether.o
                                                  ./src/new_thread0_entry.o
FreeRTOS_inet_addr                                ./ra/aws/FreeRTOS/FreeRTOS-Plus/Source/FreeRTOS-Plus-TCP/source/FreeRTOS_Sockets.o
                                                  ./src/new_thread0_entry.o
                                                  ./ra/aws/FreeRTOS/FreeRTOS-Plus/Source/FreeRTOS-Plus-TCP/source/FreeRTOS_DNS.o
FreeRTOS_SendPingRequest                          ./ra/aws/FreeRTOS/FreeRTOS-Plus/Source/FreeRTOS-Plus-TCP/source/FreeRTOS_IP.o
                                                  ./src/new_thread0_entry.o
gp_remote_ip_address                              ./src/new_thread0_entry.o
new_thread0_entry                                 ./src/new_thread0_entry.o
                                                  ./ra_gen/new_thread0.o
R_FSP_VersionGet                                  ./ra/fsp/src/bsp/mcu/all/bsp_common.o
                                                  ./src/new_thread0_entry.o
FreeRTOS_IPInit                                   ./ra/aws/FreeRTOS/FreeRTOS-Plus/Source/FreeRTOS-Plus-TCP/source/FreeRTOS_IP.o
                                                  ./src/new_thread0_entry.o
g_usrPingCount                                    ./src/new_thread0_entry.o
vTaskDelay                                        ./ra/aws/FreeRTOS/FreeRTOS/Source/tasks.o
                                                  ./src/new_thread0_entry.o
                                                  ./ra/fsp/src/rm_freertos_plus_tcp/NetworkInterface.o
                                                  ./ra/aws/FreeRTOS/FreeRTOS-Plus/Source/FreeRTOS-Plus-TCP/source/FreeRTOS_ARP.o
g_common_init                                     ./ra_gen/common_data.o
                                                  ./ra_gen/hal_data.o
g_ether_phy_lsi0                                  ./ra_gen/common_data.o
g_ether_phy0_extended_cfg                         ./ra_gen/common_data.o
g_ether_phy0_cfg                                  ./ra_gen/common_data.o
g_ether_phy0_ctrl                                 ./ra_gen/common_data.o
g_ether_phy0                                      ./ra_gen/common_data.o
g_ether_phy_on_ether_phy                          ./ra/fsp/src/r_ether_phy/r_ether_phy.o
                                                  ./ra_gen/common_data.o
g_ether0_mac_address                              ./ra_gen/common_data.o
g_ether0_ether_buffer0                            ./ra_gen/common_data.o
g_ether0_ether_buffer1                            ./ra_gen/common_data.o
g_ether0_ether_buffer2                            ./ra_gen/common_data.o
g_ether0_ether_buffer3                            ./ra_gen/common_data.o
g_ether0_ether_buffer4                            ./ra_gen/common_data.o
g_ether0_ether_buffer5                            ./ra_gen/common_data.o
g_ether0_ether_buffer6                            ./ra_gen/common_data.o
g_ether0_ether_buffer7                            ./ra_gen/common_data.o
pp_g_ether0_ether_buffers                         ./ra_gen/common_data.o
g_ether0_rx_descriptors                           ./ra_gen/common_data.o
g_ether0_tx_descriptors                           ./ra_gen/common_data.o
g_ether0_extended_cfg_t                           ./ra_gen/common_data.o
g_freertos_plus_tcp0                              ./ra_gen/common_data.o
g_ether0_cfg                                      ./ra_gen/common_data.o
vEtherISRCallback                                 ./ra/fsp/src/rm_freertos_plus_tcp/NetworkInterface.o
                                                  ./ra_gen/common_data.o
g_ether0_ctrl                                     ./ra_gen/common_data.o
g_ether_on_ether                                  ./ra/fsp/src/r_ether/r_ether.o
                                                  ./ra_gen/common_data.o
gp_freertos_plus_tcp_instance                     ./ra_gen/common_data.o
                                                  ./ra/fsp/src/rm_freertos_plus_tcp/NetworkInterface.o
g_hal_init                                        ./ra_gen/hal_data.o
                                                  ./ra_gen/main.o
rtos_startup_err_callback_internal                ./ra_gen/main.o
rtos_startup_common_init                          ./ra_gen/main.o
                                                  ./ra_gen/new_thread0.o
g_fsp_common_initialized_semaphore                ./ra_gen/main.o
xQueueSemaphoreTake                               ./ra/aws/FreeRTOS/FreeRTOS/Source/queue.o
                                                  ./ra_gen/main.o
                                                  ./ra/aws/FreeRTOS/FreeRTOS-Plus/Source/FreeRTOS-Plus-TCP/source/portable/BufferManagement/BufferAllocation_2.o
rtos_startup_err_callback                         ./ra_gen/main.o
                                                  ./ra_gen/new_thread0.o
g_fsp_common_initialized                          ./ra_gen/main.o
g_fsp_common_thread_count                         ./ra_gen/main.o
                                                  ./ra_gen/new_thread0.o
xQueueGenericSend                                 ./ra/aws/FreeRTOS/FreeRTOS/Source/queue.o
                                                  ./ra_gen/main.o
                                                  ./ra/aws/FreeRTOS/FreeRTOS/Source/timers.o
                                                  ./ra/aws/FreeRTOS/FreeRTOS-Plus/Source/FreeRTOS-Plus-TCP/source/portable/BufferManagement/BufferAllocation_2.o
                                                  ./ra/aws/FreeRTOS/FreeRTOS-Plus/Source/FreeRTOS-Plus-TCP/source/FreeRTOS_IP.o
main                                              ./ra_gen/main.o
                                                  ./ra/fsp/src/bsp/cmsis/Device/RENESAS/Source/startup.o
g_fsp_common_initialized_semaphore_memory         ./ra_gen/main.o
xQueueCreateCountingSemaphoreStatic               ./ra/aws/FreeRTOS/FreeRTOS/Source/queue.o
                                                  ./ra_gen/main.o
                                                  ./ra/aws/FreeRTOS/FreeRTOS-Plus/Source/FreeRTOS-Plus-TCP/source/portable/BufferManagement/BufferAllocation_2.o
new_thread0_create                                ./ra_gen/new_thread0.o
                                                  ./ra_gen/main.o
vTaskStartScheduler                               ./ra/aws/FreeRTOS/FreeRTOS/Source/tasks.o
                                                  ./ra_gen/main.o
vApplicationGetIdleTaskMemory                     ./ra_gen/main.o
                                                  ./ra/aws/FreeRTOS/FreeRTOS/Source/tasks.o
vApplicationGetTimerTaskMemory                    ./ra_gen/main.o
                                                  ./ra/aws/FreeRTOS/FreeRTOS/Source/timers.o
new_thread0_parameters                            ./ra_gen/new_thread0.o
xTaskCreateStatic                                 ./ra/aws/FreeRTOS/FreeRTOS/Source/tasks.o
                                                  ./ra_gen/new_thread0.o
                                                  ./ra/aws/FreeRTOS/FreeRTOS/Source/timers.o
                                                  ./ra/aws/FreeRTOS/FreeRTOS-Plus/Source/FreeRTOS-Plus-TCP/source/FreeRTOS_IP.o
new_thread0                                       ./ra_gen/new_thread0.o
g_bsp_pin_cfg_data                                ./ra_gen/pin_data.o
g_vector_table                                    ./ra_gen/vector_data.o
ether_eint_isr                                    ./ra/fsp/src/r_ether/r_ether.o
                                                  ./ra_gen/vector_data.o
g_interrupt_event_link_select                     ./ra_gen/vector_data.o
                                                  ./ra/fsp/src/bsp/mcu/all/bsp_irq.o
SVC_Handler                                       ./ra/fsp/src/rm_freertos_port/port.o
                                                  ./ra/fsp/src/bsp/cmsis/Device/RENESAS/Source/startup.o
PendSV_Handler                                    ./ra/fsp/src/rm_freertos_port/port.o
                                                  ./ra/fsp/src/bsp/cmsis/Device/RENESAS/Source/startup.o
vTaskSwitchContext                                ./ra/aws/FreeRTOS/FreeRTOS/Source/tasks.o
                                                  ./ra/fsp/src/rm_freertos_port/port.o
rm_freertos_port_restore_task_stackless           ./ra/fsp/src/rm_freertos_port/port.o
SysTick_Handler                                   ./ra/fsp/src/rm_freertos_port/port.o
                                                  ./ra/fsp/src/bsp/cmsis/Device/RENESAS/Source/startup.o
xTaskIncrementTick                                ./ra/aws/FreeRTOS/FreeRTOS/Source/tasks.o
                                                  ./ra/fsp/src/rm_freertos_port/port.o
vPortSVCHandler_C                                 ./ra/fsp/src/rm_freertos_port/port.o
__assert_func                                     ./ra/fsp/src/bsp/mcu/all/bsp_common.o
                                                  ./ra/fsp/src/rm_freertos_port/port.o
                                                  ./ra/fsp/src/rm_freertos_plus_tcp/NetworkInterface.o
                                                  ./ra/aws/FreeRTOS/FreeRTOS/Source/portable/MemMang/heap_4.o
                                                  ./ra/aws/FreeRTOS/FreeRTOS/Source/event_groups.o
                                                  ./ra/aws/FreeRTOS/FreeRTOS/Source/queue.o
                                                  ./ra/aws/FreeRTOS/FreeRTOS/Source/stream_buffer.o
                                                  ./ra/aws/FreeRTOS/FreeRTOS/Source/tasks.o
                                                  ./ra/aws/FreeRTOS/FreeRTOS/Source/timers.o
                                                  ./ra/aws/FreeRTOS/FreeRTOS-Plus/Source/FreeRTOS-Plus-TCP/source/portable/BufferManagement/BufferAllocation_2.o
                                                  ./ra/aws/FreeRTOS/FreeRTOS-Plus/Source/FreeRTOS-Plus-TCP/source/FreeRTOS_ARP.o
                                                  ./ra/aws/FreeRTOS/FreeRTOS-Plus/Source/FreeRTOS-Plus-TCP/source/FreeRTOS_DNS.o
                                                  ./ra/aws/FreeRTOS/FreeRTOS-Plus/Source/FreeRTOS-Plus-TCP/source/FreeRTOS_DNS_Cache.o
                                                  ./ra/aws/FreeRTOS/FreeRTOS-Plus/Source/FreeRTOS-Plus-TCP/source/FreeRTOS_ICMP.o
                                                  ./ra/aws/FreeRTOS/FreeRTOS-Plus/Source/FreeRTOS-Plus-TCP/source/FreeRTOS_IP.o
                                                  ./ra/aws/FreeRTOS/FreeRTOS-Plus/Source/FreeRTOS-Plus-TCP/source/FreeRTOS_IP_Utils.o
                                                  ./ra/aws/FreeRTOS/FreeRTOS-Plus/Source/FreeRTOS-Plus-TCP/source/FreeRTOS_Routing.o
                                                  ./ra/aws/FreeRTOS/FreeRTOS-Plus/Source/FreeRTOS-Plus-TCP/source/FreeRTOS_Sockets.o
                                                  ./ra/aws/FreeRTOS/FreeRTOS-Plus/Source/FreeRTOS-Plus-TCP/source/FreeRTOS_TCP_IP.o
                                                  ./ra/aws/FreeRTOS/FreeRTOS-Plus/Source/FreeRTOS-Plus-TCP/source/FreeRTOS_TCP_Transmission.o
                                                  ./ra/aws/FreeRTOS/FreeRTOS-Plus/Source/FreeRTOS-Plus-TCP/source/FreeRTOS_TCP_Transmission_IPv4.o
                                                  ./ra/aws/FreeRTOS/FreeRTOS-Plus/Source/FreeRTOS-Plus-TCP/source/FreeRTOS_UDP_IP.o
                                                  ./ra/aws/FreeRTOS/FreeRTOS-Plus/Source/FreeRTOS-Plus-TCP/source/FreeRTOS_UDP_IPv4.o
pxPortInitialiseStack                             ./ra/fsp/src/rm_freertos_port/port.o
                                                  ./ra/aws/FreeRTOS/FreeRTOS/Source/tasks.o
xPortStartScheduler                               ./ra/fsp/src/rm_freertos_port/port.o
                                                  ./ra/aws/FreeRTOS/FreeRTOS/Source/tasks.o
vPortSetupTimerInterrupt                          ./ra/fsp/src/rm_freertos_port/port.o
SystemCoreClock                                   ./ra/fsp/src/bsp/cmsis/Device/RENESAS/Source/system.o
                                                  ./ra/fsp/src/rm_freertos_port/port.o
                                                  ./ra/fsp/src/r_ether/r_ether.o
                                                  ./ra/fsp/src/bsp/mcu/all/bsp_clocks.o
                                                  ./ra/fsp/src/bsp/mcu/all/bsp_delay.o
vPortEnterCritical                                ./ra/fsp/src/rm_freertos_port/port.o
                                                  ./ra/aws/FreeRTOS/FreeRTOS/Source/portable/MemMang/heap_4.o
                                                  ./ra/aws/FreeRTOS/FreeRTOS/Source/event_groups.o
                                                  ./ra/aws/FreeRTOS/FreeRTOS/Source/queue.o
                                                  ./ra/aws/FreeRTOS/FreeRTOS/Source/stream_buffer.o
                                                  ./ra/aws/FreeRTOS/FreeRTOS/Source/tasks.o
                                                  ./ra/aws/FreeRTOS/FreeRTOS/Source/timers.o
                                                  ./ra/aws/FreeRTOS/FreeRTOS-Plus/Source/FreeRTOS-Plus-TCP/source/portable/BufferManagement/BufferAllocation_2.o
                                                  ./ra/aws/FreeRTOS/FreeRTOS-Plus/Source/FreeRTOS-Plus-TCP/source/FreeRTOS_Stream_Buffer.o
vPortExitCritical                                 ./ra/fsp/src/rm_freertos_port/port.o
                                                  ./ra/aws/FreeRTOS/FreeRTOS/Source/portable/MemMang/heap_4.o
                                                  ./ra/aws/FreeRTOS/FreeRTOS/Source/event_groups.o
                                                  ./ra/aws/FreeRTOS/FreeRTOS/Source/queue.o
                                                  ./ra/aws/FreeRTOS/FreeRTOS/Source/stream_buffer.o
                                                  ./ra/aws/FreeRTOS/FreeRTOS/Source/tasks.o
                                                  ./ra/aws/FreeRTOS/FreeRTOS/Source/timers.o
                                                  ./ra/aws/FreeRTOS/FreeRTOS-Plus/Source/FreeRTOS-Plus-TCP/source/portable/BufferManagement/BufferAllocation_2.o
                                                  ./ra/aws/FreeRTOS/FreeRTOS-Plus/Source/FreeRTOS-Plus-TCP/source/FreeRTOS_Stream_Buffer.o
vApplicationIdleHook                              ./ra/fsp/src/rm_freertos_port/port.o
                                                  ./ra/aws/FreeRTOS/FreeRTOS/Source/tasks.o
vTaskSuspendAll                                   ./ra/aws/FreeRTOS/FreeRTOS/Source/tasks.o
                                                  ./ra/fsp/src/rm_freertos_port/port.o
                                                  ./ra/aws/FreeRTOS/FreeRTOS/Source/portable/MemMang/heap_4.o
                                                  ./ra/aws/FreeRTOS/FreeRTOS/Source/event_groups.o
                                                  ./ra/aws/FreeRTOS/FreeRTOS/Source/queue.o
                                                  ./ra/aws/FreeRTOS/FreeRTOS/Source/stream_buffer.o
                                                  ./ra/aws/FreeRTOS/FreeRTOS/Source/timers.o
                                                  ./ra/aws/FreeRTOS/FreeRTOS-Plus/Source/FreeRTOS-Plus-TCP/source/FreeRTOS_Sockets.o
                                                  ./ra/aws/FreeRTOS/FreeRTOS-Plus/Source/FreeRTOS-Plus-TCP/source/FreeRTOS_TCP_IP.o
                                                  ./ra/aws/FreeRTOS/FreeRTOS-Plus/Source/FreeRTOS-Plus-TCP/source/FreeRTOS_UDP_IPv4.o
xTaskResumeAll                                    ./ra/aws/FreeRTOS/FreeRTOS/Source/tasks.o
                                                  ./ra/fsp/src/rm_freertos_port/port.o
                                                  ./ra/aws/FreeRTOS/FreeRTOS/Source/portable/MemMang/heap_4.o
                                                  ./ra/aws/FreeRTOS/FreeRTOS/Source/event_groups.o
                                                  ./ra/aws/FreeRTOS/FreeRTOS/Source/queue.o
                                                  ./ra/aws/FreeRTOS/FreeRTOS/Source/stream_buffer.o
                                                  ./ra/aws/FreeRTOS/FreeRTOS/Source/timers.o
                                                  ./ra/aws/FreeRTOS/FreeRTOS-Plus/Source/FreeRTOS-Plus-TCP/source/FreeRTOS_Sockets.o
                                                  ./ra/aws/FreeRTOS/FreeRTOS-Plus/Source/FreeRTOS-Plus-TCP/source/FreeRTOS_TCP_IP.o
                                                  ./ra/aws/FreeRTOS/FreeRTOS-Plus/Source/FreeRTOS-Plus-TCP/source/FreeRTOS_UDP_IPv4.o
vPortValidateInterruptPriority                    ./ra/fsp/src/rm_freertos_port/port.o
                                                  ./ra/aws/FreeRTOS/FreeRTOS/Source/queue.o
                                                  ./ra/aws/FreeRTOS/FreeRTOS/Source/tasks.o
pxCurrentTCB                                      ./ra/aws/FreeRTOS/FreeRTOS/Source/tasks.o
                                                  ./ra/fsp/src/rm_freertos_port/port.o
vTaskGenericNotifyGiveFromISR                     ./ra/aws/FreeRTOS/FreeRTOS/Source/tasks.o
                                                  ./ra/fsp/src/rm_freertos_plus_tcp/NetworkInterface.o
FreeRTOS_UpdateMACAddress                         ./ra/aws/FreeRTOS/FreeRTOS-Plus/Source/FreeRTOS-Plus-TCP/source/FreeRTOS_IP.o
                                                  ./ra/fsp/src/rm_freertos_plus_tcp/NetworkInterface.o
snprintf                                          D:\Renesas\RA\e2studio_v2023-07_fsp_v4.6.0\toolchains\llvm_arm\LLVM-ET-Arm-18.1.3-Windows-x86_64\bin\..\lib\clang-runtimes/arm-none-eabi/armv7em_hard_fpv4_sp_d16_exn_rtti\lib\libc.a(libc_tinystdio_snprintf.c.o)
                                                  ./ra/fsp/src/rm_freertos_plus_tcp/NetworkInterface.o
FreeRTOS_AddNetworkInterface                      ./ra/aws/FreeRTOS/FreeRTOS-Plus/Source/FreeRTOS-Plus-TCP/source/FreeRTOS_Routing.o
                                                  ./ra/fsp/src/rm_freertos_plus_tcp/NetworkInterface.o
xTaskCreate                                       ./ra/aws/FreeRTOS/FreeRTOS/Source/tasks.o
                                                  ./ra/fsp/src/rm_freertos_plus_tcp/NetworkInterface.o
vReleaseNetworkBufferAndDescriptor                ./ra/aws/FreeRTOS/FreeRTOS-Plus/Source/FreeRTOS-Plus-TCP/source/portable/BufferManagement/BufferAllocation_2.o
                                                  ./ra/fsp/src/rm_freertos_plus_tcp/NetworkInterface.o
                                                  ./ra/aws/FreeRTOS/FreeRTOS-Plus/Source/FreeRTOS-Plus-TCP/source/FreeRTOS_ARP.o
                                                  ./ra/aws/FreeRTOS/FreeRTOS-Plus/Source/FreeRTOS-Plus-TCP/source/FreeRTOS_DNS.o
                                                  ./ra/aws/FreeRTOS/FreeRTOS-Plus/Source/FreeRTOS-Plus-TCP/source/FreeRTOS_IP.o
                                                  ./ra/aws/FreeRTOS/FreeRTOS-Plus/Source/FreeRTOS-Plus-TCP/source/FreeRTOS_IP_Timers.o
                                                  ./ra/aws/FreeRTOS/FreeRTOS-Plus/Source/FreeRTOS-Plus-TCP/source/FreeRTOS_Sockets.o
                                                  ./ra/aws/FreeRTOS/FreeRTOS-Plus/Source/FreeRTOS-Plus-TCP/source/FreeRTOS_TCP_IP.o
                                                  ./ra/aws/FreeRTOS/FreeRTOS-Plus/Source/FreeRTOS-Plus-TCP/source/FreeRTOS_TCP_Transmission.o
                                                  ./ra/aws/FreeRTOS/FreeRTOS-Plus/Source/FreeRTOS-Plus-TCP/source/FreeRTOS_TCP_Transmission_IPv4.o
                                                  ./ra/aws/FreeRTOS/FreeRTOS-Plus/Source/FreeRTOS-Plus-TCP/source/FreeRTOS_UDP_IPv4.o
pxFillInterfaceDescriptor                         ./ra/fsp/src/rm_freertos_plus_tcp/NetworkInterface.o
                                                  ./ra/aws/FreeRTOS/FreeRTOS-Plus/Source/FreeRTOS-Plus-TCP/source/FreeRTOS_IP.o
xApplicationGetRandomNumber                       ./ra/fsp/src/rm_freertos_plus_tcp/NetworkInterface.o
                                                  ./ra/aws/FreeRTOS/FreeRTOS-Plus/Source/FreeRTOS-Plus-TCP/source/FreeRTOS_DNS.o
                                                  ./ra/aws/FreeRTOS/FreeRTOS-Plus/Source/FreeRTOS-Plus-TCP/source/FreeRTOS_Sockets.o
rand                                              D:\Renesas\RA\e2studio_v2023-07_fsp_v4.6.0\toolchains\llvm_arm\LLVM-ET-Arm-18.1.3-Windows-x86_64\bin\..\lib\clang-runtimes/arm-none-eabi/armv7em_hard_fpv4_sp_d16_exn_rtti\lib\libc.a(libc_stdlib_rand.c.o)
                                                  ./ra/fsp/src/rm_freertos_plus_tcp/NetworkInterface.o
ulApplicationGetNextSequenceNumber                ./ra/fsp/src/rm_freertos_plus_tcp/NetworkInterface.o
                                                  ./ra/aws/FreeRTOS/FreeRTOS-Plus/Source/FreeRTOS-Plus-TCP/source/FreeRTOS_TCP_State_Handling_IPv4.o
                                                  ./ra/aws/FreeRTOS/FreeRTOS-Plus/Source/FreeRTOS-Plus-TCP/source/FreeRTOS_TCP_Transmission_IPv4.o
ulTaskGenericNotifyTake                           ./ra/aws/FreeRTOS/FreeRTOS/Source/tasks.o
                                                  ./ra/fsp/src/rm_freertos_plus_tcp/NetworkInterface.o
pxGetNetworkBufferWithDescriptor                  ./ra/aws/FreeRTOS/FreeRTOS-Plus/Source/FreeRTOS-Plus-TCP/source/portable/BufferManagement/BufferAllocation_2.o
                                                  ./ra/fsp/src/rm_freertos_plus_tcp/NetworkInterface.o
                                                  ./ra/aws/FreeRTOS/FreeRTOS-Plus/Source/FreeRTOS-Plus-TCP/source/FreeRTOS_ARP.o
                                                  ./ra/aws/FreeRTOS/FreeRTOS-Plus/Source/FreeRTOS-Plus-TCP/source/FreeRTOS_DNS.o
                                                  ./ra/aws/FreeRTOS/FreeRTOS-Plus/Source/FreeRTOS-Plus-TCP/source/FreeRTOS_IP.o
                                                  ./ra/aws/FreeRTOS/FreeRTOS-Plus/Source/FreeRTOS-Plus-TCP/source/FreeRTOS_IP_Utils.o
                                                  ./ra/aws/FreeRTOS/FreeRTOS-Plus/Source/FreeRTOS-Plus-TCP/source/FreeRTOS_Sockets.o
                                                  ./ra/aws/FreeRTOS/FreeRTOS-Plus/Source/FreeRTOS-Plus-TCP/source/FreeRTOS_TCP_Transmission.o
FreeRTOS_MatchingEndpoint                         ./ra/aws/FreeRTOS/FreeRTOS-Plus/Source/FreeRTOS-Plus-TCP/source/FreeRTOS_Routing.o
                                                  ./ra/fsp/src/rm_freertos_plus_tcp/NetworkInterface.o
eConsiderFrameForProcessing                       ./ra/aws/FreeRTOS/FreeRTOS-Plus/Source/FreeRTOS-Plus-TCP/source/FreeRTOS_IP.o
                                                  ./ra/fsp/src/rm_freertos_plus_tcp/NetworkInterface.o
xSendEventStructToIPTask                          ./ra/aws/FreeRTOS/FreeRTOS-Plus/Source/FreeRTOS-Plus-TCP/source/FreeRTOS_IP.o
                                                  ./ra/fsp/src/rm_freertos_plus_tcp/NetworkInterface.o
                                                  ./ra/aws/FreeRTOS/FreeRTOS-Plus/Source/FreeRTOS-Plus-TCP/source/FreeRTOS_ARP.o
                                                  ./ra/aws/FreeRTOS/FreeRTOS-Plus/Source/FreeRTOS-Plus-TCP/source/FreeRTOS_IP_Utils.o
                                                  ./ra/aws/FreeRTOS/FreeRTOS-Plus/Source/FreeRTOS-Plus-TCP/source/FreeRTOS_Sockets.o
vIPNetworkUpCalls                                 ./ra/aws/FreeRTOS/FreeRTOS-Plus/Source/FreeRTOS-Plus-TCP/source/FreeRTOS_IP.o
                                                  ./ra/fsp/src/rm_freertos_plus_tcp/NetworkInterface.o
                                                  ./ra/aws/FreeRTOS/FreeRTOS-Plus/Source/FreeRTOS-Plus-TCP/source/FreeRTOS_IP_Utils.o
g_protect_pfswe_counter                           ./ra/fsp/src/bsp/mcu/all/bsp_io.o
                                                  ./ra/fsp/src/r_ioport/r_ioport.o
R_BSP_SoftwareDelay                               ./ra/fsp/src/bsp/mcu/all/bsp_delay.o
                                                  ./ra/fsp/src/r_ioport/r_ioport.o
                                                  ./ra/fsp/src/r_ether/r_ether.o
                                                  ./ra/fsp/src/bsp/mcu/all/bsp_clocks.o
R_BSP_RegisterProtectDisable                      ./ra/fsp/src/bsp/mcu/all/bsp_register_protection.o
                                                  ./ra/fsp/src/r_ioport/r_ioport.o
                                                  ./ra/fsp/src/bsp/mcu/all/bsp_clocks.o
                                                  ./ra/fsp/src/bsp/mcu/all/bsp_sdram.o
R_BSP_RegisterProtectEnable                       ./ra/fsp/src/bsp/mcu/all/bsp_register_protection.o
                                                  ./ra/fsp/src/r_ioport/r_ioport.o
                                                  ./ra/fsp/src/bsp/mcu/all/bsp_clocks.o
                                                  ./ra/fsp/src/bsp/mcu/all/bsp_sdram.o
R_ETHER_PHY_Open                                  ./ra/fsp/src/r_ether_phy/r_ether_phy.o
R_ETHER_PHY_Write                                 ./ra/fsp/src/r_ether_phy/r_ether_phy.o
R_ETHER_PHY_Read                                  ./ra/fsp/src/r_ether_phy/r_ether_phy.o
R_ETHER_PHY_Close                                 ./ra/fsp/src/r_ether_phy/r_ether_phy.o
R_ETHER_PHY_ChipInit                              ./ra/fsp/src/r_ether_phy/r_ether_phy.o
R_ETHER_PHY_StartAutoNegotiate                    ./ra/fsp/src/r_ether_phy/r_ether_phy.o
R_ETHER_PHY_LinkPartnerAbilityGet                 ./ra/fsp/src/r_ether_phy/r_ether_phy.o
R_ETHER_PHY_LinkStatusGet                         ./ra/fsp/src/r_ether_phy/r_ether_phy.o
R_ETHER_Open                                      ./ra/fsp/src/r_ether/r_ether.o
__aeabi_memclr                                    D:\Renesas\RA\e2studio_v2023-07_fsp_v4.6.0\toolchains\llvm_arm\LLVM-ET-Arm-18.1.3-Windows-x86_64\bin\..\lib\clang-runtimes/arm-none-eabi/armv7em_hard_fpv4_sp_d16_exn_rtti\lib\libc.a(bzero.c.o)
                                                  ./ra/fsp/src/r_ether/r_ether.o
                                                  ./ra/aws/FreeRTOS/FreeRTOS/Source/portable/MemMang/heap_4.o
                                                  ./ra/aws/FreeRTOS/FreeRTOS/Source/stream_buffer.o
                                                  ./ra/aws/FreeRTOS/FreeRTOS/Source/tasks.o
                                                  ./ra/aws/FreeRTOS/FreeRTOS-Plus/Source/FreeRTOS-Plus-TCP/source/FreeRTOS_BitConfig.o
                                                  ./ra/aws/FreeRTOS/FreeRTOS-Plus/Source/FreeRTOS-Plus-TCP/source/FreeRTOS_Sockets.o
                                                  ./ra/aws/FreeRTOS/FreeRTOS-Plus/Source/FreeRTOS-Plus-TCP/source/FreeRTOS_TCP_Transmission_IPv4.o
                                                  D:\Renesas\RA\e2studio_v2023-07_fsp_v4.6.0\toolchains\llvm_arm\LLVM-ET-Arm-18.1.3-Windows-x86_64\bin\..\lib\clang-runtimes/arm-none-eabi/armv7em_hard_fpv4_sp_d16_exn_rtti\lib\libc.a(libc_picolib_inittls.c.o)
gp_renesas_isr_context                            ./ra/fsp/src/bsp/mcu/all/bsp_irq.o
                                                  ./ra/fsp/src/r_ether/r_ether.o
R_ETHER_Close                                     ./ra/fsp/src/r_ether/r_ether.o
R_ETHER_Read                                      ./ra/fsp/src/r_ether/r_ether.o
R_ETHER_BufferRelease                             ./ra/fsp/src/r_ether/r_ether.o
R_ETHER_RxBufferUpdate                            ./ra/fsp/src/r_ether/r_ether.o
R_ETHER_Write                                     ./ra/fsp/src/r_ether/r_ether.o
R_ETHER_WakeOnLANEnable                           ./ra/fsp/src/r_ether/r_ether.o
R_ETHER_TxStatusGet                               ./ra/fsp/src/r_ether/r_ether.o
R_ETHER_CallbackSet                               ./ra/fsp/src/r_ether/r_ether.o
g_init_info                                       ./ra/fsp/src/bsp/mcu/ra6m2/bsp_linker.o
                                                  ./ra/fsp/src/bsp/cmsis/Device/RENESAS/Source/system.o
__sdram_zero$$Base                                fsp_gen.lld:196
                                                  ./ra/fsp/src/bsp/mcu/ra6m2/bsp_linker.o
__sdram_zero$$Limit                               fsp_gen.lld:199
                                                  ./ra/fsp/src/bsp/mcu/ra6m2/bsp_linker.o
__ram_zero$$Base                                  fsp_gen.lld:234
                                                  ./ra/fsp/src/bsp/mcu/ra6m2/bsp_linker.o
__ram_zero$$Limit                                 fsp_gen.lld:238
                                                  ./ra/fsp/src/bsp/mcu/ra6m2/bsp_linker.o
__ram_tbss$$Base                                  fsp_gen.lld:252
                                                  ./ra/fsp/src/bsp/mcu/ra6m2/bsp_linker.o
__ram_tbss$$Limit                                 fsp_gen.lld:257
                                                  ./ra/fsp/src/bsp/mcu/ra6m2/bsp_linker.o
__sdram_from_qspi_flash$$Base                     fsp_gen.lld:35
                                                  ./ra/fsp/src/bsp/mcu/ra6m2/bsp_linker.o
__sdram_from_qspi_flash$$Limit                    fsp_gen.lld:40
                                                  ./ra/fsp/src/bsp/mcu/ra6m2/bsp_linker.o
__sdram_from_qspi_flash$$Load                     fsp_gen.lld:35
                                                  ./ra/fsp/src/bsp/mcu/ra6m2/bsp_linker.o
__sdram_from_data_flash$$Base                     fsp_gen.lld:98
                                                  ./ra/fsp/src/bsp/mcu/ra6m2/bsp_linker.o
__sdram_from_data_flash$$Limit                    fsp_gen.lld:103
                                                  ./ra/fsp/src/bsp/mcu/ra6m2/bsp_linker.o
__sdram_from_data_flash$$Load                     fsp_gen.lld:98
                                                  ./ra/fsp/src/bsp/mcu/ra6m2/bsp_linker.o
__sdram_from_flash$$Base                          fsp_gen.lld:178
                                                  ./ra/fsp/src/bsp/mcu/ra6m2/bsp_linker.o
__sdram_from_flash$$Limit                         fsp_gen.lld:183
                                                  ./ra/fsp/src/bsp/mcu/ra6m2/bsp_linker.o
__sdram_from_flash$$Load                          fsp_gen.lld:178
                                                  ./ra/fsp/src/bsp/mcu/ra6m2/bsp_linker.o
__ram_from_qspi_flash$$Base                       fsp_gen.lld:58
                                                  ./ra/fsp/src/bsp/mcu/ra6m2/bsp_linker.o
__ram_from_qspi_flash$$Limit                      fsp_gen.lld:63
                                                  ./ra/fsp/src/bsp/mcu/ra6m2/bsp_linker.o
__ram_from_qspi_flash$$Load                       fsp_gen.lld:58
                                                  ./ra/fsp/src/bsp/mcu/ra6m2/bsp_linker.o
__ram_from_data_flash$$Base                       fsp_gen.lld:110
                                                  ./ra/fsp/src/bsp/mcu/ra6m2/bsp_linker.o
__ram_from_data_flash$$Limit                      fsp_gen.lld:115
                                                  ./ra/fsp/src/bsp/mcu/ra6m2/bsp_linker.o
__ram_from_data_flash$$Load                       fsp_gen.lld:110
                                                  ./ra/fsp/src/bsp/mcu/ra6m2/bsp_linker.o
__ram_from_flash$$Base                            fsp_gen.lld:211
                                                  ./ra/fsp/src/bsp/mcu/ra6m2/bsp_linker.o
__ram_from_flash$$Limit                           fsp_gen.lld:218
                                                  ./ra/fsp/src/bsp/mcu/ra6m2/bsp_linker.o
__ram_from_flash$$Load                            fsp_gen.lld:211
                                                  ./ra/fsp/src/bsp/mcu/ra6m2/bsp_linker.o
__ram_tdata$$Base                                 fsp_gen.lld:243
                                                  ./ra/fsp/src/bsp/mcu/ra6m2/bsp_linker.o
__ram_tdata$$Limit                                fsp_gen.lld:247
                                                  ./ra/fsp/src/bsp/mcu/ra6m2/bsp_linker.o
__ram_tdata$$Load                                 fsp_gen.lld:243
                                                  ./ra/fsp/src/bsp/mcu/ra6m2/bsp_linker.o
SystemCoreClockUpdate                             ./ra/fsp/src/bsp/mcu/all/bsp_clocks.o
                                                  ./ra/fsp/src/bsp/cmsis/Device/RENESAS/Source/system.o
bsp_clock_init                                    ./ra/fsp/src/bsp/mcu/all/bsp_clocks.o
                                                  ./ra/fsp/src/bsp/cmsis/Device/RENESAS/Source/system.o
R_BSP_SubClockStabilizeWaitAfterReset             ./ra/fsp/src/bsp/mcu/all/bsp_clocks.o
R_BSP_Init_RTC                                    ./ra/fsp/src/bsp/mcu/all/bsp_clocks.o
                                                  ./ra/fsp/src/bsp/cmsis/Device/RENESAS/Source/system.o
bsp_init_internal                                 ./ra/fsp/src/bsp/mcu/all/bsp_common.o
bsp_init                                          ./ra/fsp/src/bsp/mcu/all/bsp_common.o
                                                  ./ra/fsp/src/bsp/cmsis/Device/RENESAS/Source/system.o
bsp_prv_software_delay_loop                       ./ra/fsp/src/bsp/mcu/all/bsp_delay.o
g_bsp_group_irq_sources                           ./ra/fsp/src/bsp/mcu/all/bsp_group_irq.o
NMI_Handler                                       ./ra/fsp/src/bsp/mcu/all/bsp_group_irq.o
                                                  ./ra/fsp/src/bsp/cmsis/Device/RENESAS/Source/startup.o
bsp_irq_cfg                                       ./ra/fsp/src/bsp/mcu/all/bsp_irq.o
                                                  ./ra/fsp/src/bsp/cmsis/Device/RENESAS/Source/system.o
g_protect_counters                                ./ra/fsp/src/bsp/mcu/all/bsp_register_protection.o
__aeabi_read_tp                                   D:\Renesas\RA\e2studio_v2023-07_fsp_v4.6.0\toolchains\llvm_arm\LLVM-ET-Arm-18.1.3-Windows-x86_64\bin\..\lib\clang-runtimes/arm-none-eabi/armv7em_hard_fpv4_sp_d16_exn_rtti\lib\libc.a(libc_picolib_machine_arm_read_tp.S.o)
                                                  ./ra/fsp/src/bsp/mcu/all/bsp_sbrk.o
                                                  D:\Renesas\RA\e2studio_v2023-07_fsp_v4.6.0\toolchains\llvm_arm\LLVM-ET-Arm-18.1.3-Windows-x86_64\bin\..\lib\clang-runtimes/arm-none-eabi/armv7em_hard_fpv4_sp_d16_exn_rtti\lib\libc.a(libc_stdlib_random.c.o)
Reset_Handler                                     ./ra/fsp/src/bsp/cmsis/Device/RENESAS/Source/startup.o
SystemInit                                        ./ra/fsp/src/bsp/cmsis/Device/RENESAS/Source/system.o
                                                  ./ra/fsp/src/bsp/cmsis/Device/RENESAS/Source/startup.o
Default_Handler                                   ./ra/fsp/src/bsp/cmsis/Device/RENESAS/Source/startup.o
g_main_stack                                      ./ra/fsp/src/bsp/cmsis/Device/RENESAS/Source/startup.o
                                                  ./ra/fsp/src/bsp/cmsis/Device/RENESAS/Source/system.o
__Vectors                                         ./ra/fsp/src/bsp/cmsis/Device/RENESAS/Source/startup.o
                                                  ./ra/fsp/src/bsp/cmsis/Device/RENESAS/Source/system.o
HardFault_Handler                                 ./ra/fsp/src/bsp/cmsis/Device/RENESAS/Source/startup.o
MemManage_Handler                                 ./ra/fsp/src/bsp/cmsis/Device/RENESAS/Source/startup.o
BusFault_Handler                                  ./ra/fsp/src/bsp/cmsis/Device/RENESAS/Source/startup.o
UsageFault_Handler                                ./ra/fsp/src/bsp/cmsis/Device/RENESAS/Source/startup.o
SecureFault_Handler                               ./ra/fsp/src/bsp/cmsis/Device/RENESAS/Source/startup.o
DebugMon_Handler                                  ./ra/fsp/src/bsp/cmsis/Device/RENESAS/Source/startup.o
__aeabi_memcpy4                                   D:\Renesas\RA\e2studio_v2023-07_fsp_v4.6.0\toolchains\llvm_arm\LLVM-ET-Arm-18.1.3-Windows-x86_64\bin\..\lib\clang-runtimes/arm-none-eabi/armv7em_hard_fpv4_sp_d16_exn_rtti\lib\libc.a(memcpy.c.o)
                                                  ./ra/fsp/src/bsp/cmsis/Device/RENESAS/Source/system.o
__tls_base                                        fsp_gen.lld:427
                                                  ./ra/fsp/src/bsp/cmsis/Device/RENESAS/Source/system.o
_init_tls                                         D:\Renesas\RA\e2studio_v2023-07_fsp_v4.6.0\toolchains\llvm_arm\LLVM-ET-Arm-18.1.3-Windows-x86_64\bin\..\lib\clang-runtimes/arm-none-eabi/armv7em_hard_fpv4_sp_d16_exn_rtti\lib\libc.a(libc_picolib_inittls.c.o)
                                                  ./ra/fsp/src/bsp/cmsis/Device/RENESAS/Source/system.o
_set_tls                                          D:\Renesas\RA\e2studio_v2023-07_fsp_v4.6.0\toolchains\llvm_arm\LLVM-ET-Arm-18.1.3-Windows-x86_64\bin\..\lib\clang-runtimes/arm-none-eabi/armv7em_hard_fpv4_sp_d16_exn_rtti\lib\libc.a(libc_picolib_machine_arm_tls.c.o)
                                                  ./ra/fsp/src/bsp/cmsis/Device/RENESAS/Source/system.o
__init_array_start                                fsp_gen.lld:315
                                                  ./ra/fsp/src/bsp/cmsis/Device/RENESAS/Source/system.o
__init_array_end                                  fsp_gen.lld:318
                                                  ./ra/fsp/src/bsp/cmsis/Device/RENESAS/Source/system.o
pvPortMalloc                                      ./ra/aws/FreeRTOS/FreeRTOS/Source/portable/MemMang/heap_4.o
                                                  ./ra/aws/FreeRTOS/FreeRTOS/Source/event_groups.o
                                                  ./ra/aws/FreeRTOS/FreeRTOS/Source/queue.o
                                                  ./ra/aws/FreeRTOS/FreeRTOS/Source/stream_buffer.o
                                                  ./ra/aws/FreeRTOS/FreeRTOS/Source/tasks.o
                                                  ./ra/aws/FreeRTOS/FreeRTOS/Source/timers.o
                                                  ./ra/aws/FreeRTOS/FreeRTOS-Plus/Source/FreeRTOS-Plus-TCP/source/portable/BufferManagement/BufferAllocation_2.o
                                                  ./ra/aws/FreeRTOS/FreeRTOS-Plus/Source/FreeRTOS-Plus-TCP/source/FreeRTOS_BitConfig.o
                                                  ./ra/aws/FreeRTOS/FreeRTOS-Plus/Source/FreeRTOS-Plus-TCP/source/FreeRTOS_DNS.o
                                                  ./ra/aws/FreeRTOS/FreeRTOS-Plus/Source/FreeRTOS-Plus-TCP/source/FreeRTOS_Sockets.o
vPortFree                                         ./ra/aws/FreeRTOS/FreeRTOS/Source/portable/MemMang/heap_4.o
                                                  ./ra/aws/FreeRTOS/FreeRTOS/Source/event_groups.o
                                                  ./ra/aws/FreeRTOS/FreeRTOS/Source/queue.o
                                                  ./ra/aws/FreeRTOS/FreeRTOS/Source/stream_buffer.o
                                                  ./ra/aws/FreeRTOS/FreeRTOS/Source/tasks.o
                                                  ./ra/aws/FreeRTOS/FreeRTOS/Source/timers.o
                                                  ./ra/aws/FreeRTOS/FreeRTOS-Plus/Source/FreeRTOS-Plus-TCP/source/portable/BufferManagement/BufferAllocation_2.o
                                                  ./ra/aws/FreeRTOS/FreeRTOS-Plus/Source/FreeRTOS-Plus-TCP/source/FreeRTOS_BitConfig.o
                                                  ./ra/aws/FreeRTOS/FreeRTOS-Plus/Source/FreeRTOS-Plus-TCP/source/FreeRTOS_DNS.o
                                                  ./ra/aws/FreeRTOS/FreeRTOS-Plus/Source/FreeRTOS-Plus-TCP/source/FreeRTOS_Sockets.o
vListInitialise                                   ./ra/aws/FreeRTOS/FreeRTOS/Source/list.o
                                                  ./ra/aws/FreeRTOS/FreeRTOS/Source/event_groups.o
                                                  ./ra/aws/FreeRTOS/FreeRTOS/Source/queue.o
                                                  ./ra/aws/FreeRTOS/FreeRTOS/Source/tasks.o
                                                  ./ra/aws/FreeRTOS/FreeRTOS/Source/timers.o
                                                  ./ra/aws/FreeRTOS/FreeRTOS-Plus/Source/FreeRTOS-Plus-TCP/source/portable/BufferManagement/BufferAllocation_2.o
                                                  ./ra/aws/FreeRTOS/FreeRTOS-Plus/Source/FreeRTOS-Plus-TCP/source/FreeRTOS_Sockets.o
xEventGroupCreate                                 ./ra/aws/FreeRTOS/FreeRTOS/Source/event_groups.o
                                                  ./ra/aws/FreeRTOS/FreeRTOS-Plus/Source/FreeRTOS-Plus-TCP/source/FreeRTOS_Sockets.o
xTaskGetSchedulerState                            ./ra/aws/FreeRTOS/FreeRTOS/Source/tasks.o
                                                  ./ra/aws/FreeRTOS/FreeRTOS/Source/event_groups.o
                                                  ./ra/aws/FreeRTOS/FreeRTOS/Source/queue.o
                                                  ./ra/aws/FreeRTOS/FreeRTOS/Source/timers.o
xEventGroupSetBits                                ./ra/aws/FreeRTOS/FreeRTOS/Source/event_groups.o
                                                  ./ra/aws/FreeRTOS/FreeRTOS-Plus/Source/FreeRTOS-Plus-TCP/source/FreeRTOS_Sockets.o
                                                  ./ra/aws/FreeRTOS/FreeRTOS-Plus/Source/FreeRTOS-Plus-TCP/source/FreeRTOS_UDP_IPv4.o
vTaskRemoveFromUnorderedEventList                 ./ra/aws/FreeRTOS/FreeRTOS/Source/tasks.o
                                                  ./ra/aws/FreeRTOS/FreeRTOS/Source/event_groups.o
vEventGroupDelete                                 ./ra/aws/FreeRTOS/FreeRTOS/Source/event_groups.o
                                                  ./ra/aws/FreeRTOS/FreeRTOS-Plus/Source/FreeRTOS-Plus-TCP/source/FreeRTOS_Sockets.o
vListInitialiseItem                               ./ra/aws/FreeRTOS/FreeRTOS/Source/list.o
                                                  ./ra/aws/FreeRTOS/FreeRTOS/Source/tasks.o
                                                  ./ra/aws/FreeRTOS/FreeRTOS/Source/timers.o
                                                  ./ra/aws/FreeRTOS/FreeRTOS-Plus/Source/FreeRTOS-Plus-TCP/source/portable/BufferManagement/BufferAllocation_2.o
                                                  ./ra/aws/FreeRTOS/FreeRTOS-Plus/Source/FreeRTOS-Plus-TCP/source/FreeRTOS_Sockets.o
vListInsertEnd                                    ./ra/aws/FreeRTOS/FreeRTOS/Source/list.o
                                                  ./ra/aws/FreeRTOS/FreeRTOS/Source/tasks.o
                                                  ./ra/aws/FreeRTOS/FreeRTOS-Plus/Source/FreeRTOS-Plus-TCP/source/portable/BufferManagement/BufferAllocation_2.o
                                                  ./ra/aws/FreeRTOS/FreeRTOS-Plus/Source/FreeRTOS-Plus-TCP/source/FreeRTOS_Sockets.o
                                                  ./ra/aws/FreeRTOS/FreeRTOS-Plus/Source/FreeRTOS-Plus-TCP/source/FreeRTOS_UDP_IPv4.o
vListInsert                                       ./ra/aws/FreeRTOS/FreeRTOS/Source/list.o
                                                  ./ra/aws/FreeRTOS/FreeRTOS/Source/tasks.o
                                                  ./ra/aws/FreeRTOS/FreeRTOS/Source/timers.o
                                                  ./ra/aws/FreeRTOS/FreeRTOS-Plus/Source/FreeRTOS-Plus-TCP/source/portable/BufferManagement/BufferAllocation_2.o
uxListRemove                                      ./ra/aws/FreeRTOS/FreeRTOS/Source/list.o
                                                  ./ra/aws/FreeRTOS/FreeRTOS/Source/tasks.o
                                                  ./ra/aws/FreeRTOS/FreeRTOS/Source/timers.o
                                                  ./ra/aws/FreeRTOS/FreeRTOS-Plus/Source/FreeRTOS-Plus-TCP/source/portable/BufferManagement/BufferAllocation_2.o
                                                  ./ra/aws/FreeRTOS/FreeRTOS-Plus/Source/FreeRTOS-Plus-TCP/source/FreeRTOS_Sockets.o
xQueueGenericReset                                ./ra/aws/FreeRTOS/FreeRTOS/Source/queue.o
xTaskRemoveFromEventList                          ./ra/aws/FreeRTOS/FreeRTOS/Source/tasks.o
                                                  ./ra/aws/FreeRTOS/FreeRTOS/Source/queue.o
xQueueGenericCreateStatic                         ./ra/aws/FreeRTOS/FreeRTOS/Source/queue.o
                                                  ./ra/aws/FreeRTOS/FreeRTOS/Source/timers.o
                                                  ./ra/aws/FreeRTOS/FreeRTOS-Plus/Source/FreeRTOS-Plus-TCP/source/FreeRTOS_IP.o
vTaskInternalSetTimeOutState                      ./ra/aws/FreeRTOS/FreeRTOS/Source/tasks.o
                                                  ./ra/aws/FreeRTOS/FreeRTOS/Source/queue.o
xTaskCheckForTimeOut                              ./ra/aws/FreeRTOS/FreeRTOS/Source/tasks.o
                                                  ./ra/aws/FreeRTOS/FreeRTOS/Source/queue.o
                                                  ./ra/aws/FreeRTOS/FreeRTOS/Source/stream_buffer.o
                                                  ./ra/aws/FreeRTOS/FreeRTOS-Plus/Source/FreeRTOS-Plus-TCP/source/FreeRTOS_ARP.o
                                                  ./ra/aws/FreeRTOS/FreeRTOS-Plus/Source/FreeRTOS-Plus-TCP/source/FreeRTOS_IP_Timers.o
                                                  ./ra/aws/FreeRTOS/FreeRTOS-Plus/Source/FreeRTOS-Plus-TCP/source/FreeRTOS_Sockets.o
vTaskPlaceOnEventList                             ./ra/aws/FreeRTOS/FreeRTOS/Source/tasks.o
                                                  ./ra/aws/FreeRTOS/FreeRTOS/Source/queue.o
vTaskMissedYield                                  ./ra/aws/FreeRTOS/FreeRTOS/Source/tasks.o
                                                  ./ra/aws/FreeRTOS/FreeRTOS/Source/queue.o
xQueueReceive                                     ./ra/aws/FreeRTOS/FreeRTOS/Source/queue.o
                                                  ./ra/aws/FreeRTOS/FreeRTOS/Source/timers.o
                                                  ./ra/aws/FreeRTOS/FreeRTOS-Plus/Source/FreeRTOS-Plus-TCP/source/FreeRTOS_IP.o
uxQueueMessagesWaiting                            ./ra/aws/FreeRTOS/FreeRTOS/Source/queue.o
                                                  ./ra/aws/FreeRTOS/FreeRTOS-Plus/Source/FreeRTOS-Plus-TCP/source/FreeRTOS_IP.o
                                                  ./ra/aws/FreeRTOS/FreeRTOS-Plus/Source/FreeRTOS-Plus-TCP/source/FreeRTOS_IP_Timers.o
vQueueDelete                                      ./ra/aws/FreeRTOS/FreeRTOS/Source/queue.o
                                                  ./ra/aws/FreeRTOS/FreeRTOS-Plus/Source/FreeRTOS-Plus-TCP/source/FreeRTOS_IP.o
xQueueRegistry                                    ./ra/aws/FreeRTOS/FreeRTOS/Source/queue.o
vQueueAddToRegistry                               ./ra/aws/FreeRTOS/FreeRTOS/Source/queue.o
                                                  ./ra/aws/FreeRTOS/FreeRTOS/Source/timers.o
                                                  ./ra/aws/FreeRTOS/FreeRTOS-Plus/Source/FreeRTOS-Plus-TCP/source/portable/BufferManagement/BufferAllocation_2.o
                                                  ./ra/aws/FreeRTOS/FreeRTOS-Plus/Source/FreeRTOS-Plus-TCP/source/FreeRTOS_IP.o
vQueueWaitForMessageRestricted                    ./ra/aws/FreeRTOS/FreeRTOS/Source/queue.o
                                                  ./ra/aws/FreeRTOS/FreeRTOS/Source/timers.o
vTaskPlaceOnEventListRestricted                   ./ra/aws/FreeRTOS/FreeRTOS/Source/tasks.o
                                                  ./ra/aws/FreeRTOS/FreeRTOS/Source/queue.o
__aeabi_memset                                    D:\Renesas\RA\e2studio_v2023-07_fsp_v4.6.0\toolchains\llvm_arm\LLVM-ET-Arm-18.1.3-Windows-x86_64\bin\..\lib\clang-runtimes/arm-none-eabi/armv7em_hard_fpv4_sp_d16_exn_rtti\lib\libc.a(aeabi_memset.c.o)
                                                  ./ra/aws/FreeRTOS/FreeRTOS/Source/stream_buffer.o
                                                  ./ra/aws/FreeRTOS/FreeRTOS-Plus/Source/FreeRTOS-Plus-TCP/source/FreeRTOS_IP.o
vTaskSetTimeOutState                              ./ra/aws/FreeRTOS/FreeRTOS/Source/tasks.o
                                                  ./ra/aws/FreeRTOS/FreeRTOS/Source/stream_buffer.o
                                                  ./ra/aws/FreeRTOS/FreeRTOS-Plus/Source/FreeRTOS-Plus-TCP/source/FreeRTOS_ARP.o
                                                  ./ra/aws/FreeRTOS/FreeRTOS-Plus/Source/FreeRTOS-Plus-TCP/source/FreeRTOS_IP_Timers.o
                                                  ./ra/aws/FreeRTOS/FreeRTOS-Plus/Source/FreeRTOS-Plus-TCP/source/FreeRTOS_Sockets.o
xTaskGetCurrentTaskHandle                         ./ra/aws/FreeRTOS/FreeRTOS/Source/tasks.o
                                                  ./ra/aws/FreeRTOS/FreeRTOS/Source/stream_buffer.o
                                                  ./ra/aws/FreeRTOS/FreeRTOS-Plus/Source/FreeRTOS-Plus-TCP/source/FreeRTOS_IP_Utils.o
xTimerCreateTimerTask                             ./ra/aws/FreeRTOS/FreeRTOS/Source/timers.o
                                                  ./ra/aws/FreeRTOS/FreeRTOS/Source/tasks.o
xTaskGetTickCount                                 ./ra/aws/FreeRTOS/FreeRTOS/Source/tasks.o
                                                  ./ra/aws/FreeRTOS/FreeRTOS/Source/timers.o
                                                  ./ra/aws/FreeRTOS/FreeRTOS-Plus/Source/FreeRTOS-Plus-TCP/source/FreeRTOS_ARP.o
                                                  ./ra/aws/FreeRTOS/FreeRTOS-Plus/Source/FreeRTOS-Plus-TCP/source/FreeRTOS_DNS_Cache.o
                                                  ./ra/aws/FreeRTOS/FreeRTOS-Plus/Source/FreeRTOS-Plus-TCP/source/FreeRTOS_Sockets.o
                                                  ./ra/aws/FreeRTOS/FreeRTOS-Plus/Source/FreeRTOS-Plus-TCP/source/FreeRTOS_TCP_IP.o
                                                  ./ra/aws/FreeRTOS/FreeRTOS-Plus/Source/FreeRTOS-Plus-TCP/source/FreeRTOS_TCP_State_Handling.o
                                                  ./ra/aws/FreeRTOS/FreeRTOS-Plus/Source/FreeRTOS-Plus-TCP/source/FreeRTOS_TCP_Transmission.o
                                                  ./ra/aws/FreeRTOS/FreeRTOS-Plus/Source/FreeRTOS-Plus-TCP/source/FreeRTOS_Tiny_TCP.o
xNetworkBuffersInitialise                         ./ra/aws/FreeRTOS/FreeRTOS-Plus/Source/FreeRTOS-Plus-TCP/source/portable/BufferManagement/BufferAllocation_2.o
                                                  ./ra/aws/FreeRTOS/FreeRTOS-Plus/Source/FreeRTOS-Plus-TCP/source/FreeRTOS_IP.o
uxGetNumberOfFreeNetworkBuffers                   ./ra/aws/FreeRTOS/FreeRTOS-Plus/Source/FreeRTOS-Plus-TCP/source/portable/BufferManagement/BufferAllocation_2.o
                                                  ./ra/aws/FreeRTOS/FreeRTOS-Plus/Source/FreeRTOS-Plus-TCP/source/FreeRTOS_IP.o
xBufferAllocFixedSize                             ./ra/aws/FreeRTOS/FreeRTOS-Plus/Source/FreeRTOS-Plus-TCP/source/portable/BufferManagement/BufferAllocation_2.o
                                                  ./ra/aws/FreeRTOS/FreeRTOS-Plus/Source/FreeRTOS-Plus-TCP/source/FreeRTOS_TCP_Transmission.o
eARPProcessPacket                                 ./ra/aws/FreeRTOS/FreeRTOS-Plus/Source/FreeRTOS-Plus-TCP/source/FreeRTOS_ARP.o
                                                  ./ra/aws/FreeRTOS/FreeRTOS-Plus/Source/FreeRTOS-Plus-TCP/source/FreeRTOS_IP.o
FreeRTOS_OutputARPRequest_Multi                   ./ra/aws/FreeRTOS/FreeRTOS-Plus/Source/FreeRTOS-Plus-TCP/source/FreeRTOS_ARP.o
memcmp                                            D:\Renesas\RA\e2studio_v2023-07_fsp_v4.6.0\toolchains\llvm_arm\LLVM-ET-Arm-18.1.3-Windows-x86_64\bin\..\lib\clang-runtimes/arm-none-eabi/armv7em_hard_fpv4_sp_d16_exn_rtti\lib\libc.a(libc_string_memcmp.c.o)
                                                  ./ra/aws/FreeRTOS/FreeRTOS-Plus/Source/FreeRTOS-Plus-TCP/source/FreeRTOS_ARP.o
                                                  ./ra/aws/FreeRTOS/FreeRTOS-Plus/Source/FreeRTOS-Plus-TCP/source/FreeRTOS_IP.o
                                                  ./ra/aws/FreeRTOS/FreeRTOS-Plus/Source/FreeRTOS-Plus-TCP/source/FreeRTOS_IPv4.o
                                                  ./ra/aws/FreeRTOS/FreeRTOS-Plus/Source/FreeRTOS-Plus-TCP/source/FreeRTOS_Routing.o
vARPRefreshCacheEntry                             ./ra/aws/FreeRTOS/FreeRTOS-Plus/Source/FreeRTOS-Plus-TCP/source/FreeRTOS_ARP.o
                                                  ./ra/aws/FreeRTOS/FreeRTOS-Plus/Source/FreeRTOS-Plus-TCP/source/FreeRTOS_UDP_IPv4.o
xBroadcastMACAddress                              ./ra/aws/FreeRTOS/FreeRTOS-Plus/Source/FreeRTOS-Plus-TCP/source/FreeRTOS_IP.o
                                                  ./ra/aws/FreeRTOS/FreeRTOS-Plus/Source/FreeRTOS-Plus-TCP/source/FreeRTOS_ARP.o
                                                  ./ra/aws/FreeRTOS/FreeRTOS-Plus/Source/FreeRTOS-Plus-TCP/source/FreeRTOS_IPv4.o
eARPGetCacheEntry                                 ./ra/aws/FreeRTOS/FreeRTOS-Plus/Source/FreeRTOS-Plus-TCP/source/FreeRTOS_ARP.o
                                                  ./ra/aws/FreeRTOS/FreeRTOS-Plus/Source/FreeRTOS-Plus-TCP/source/FreeRTOS_IP.o
                                                  ./ra/aws/FreeRTOS/FreeRTOS-Plus/Source/FreeRTOS-Plus-TCP/source/FreeRTOS_TCP_Transmission_IPv4.o
                                                  ./ra/aws/FreeRTOS/FreeRTOS-Plus/Source/FreeRTOS-Plus-TCP/source/FreeRTOS_UDP_IPv4.o
xIsCallingFromIPTask                              ./ra/aws/FreeRTOS/FreeRTOS-Plus/Source/FreeRTOS-Plus-TCP/source/FreeRTOS_IP_Utils.o
                                                  ./ra/aws/FreeRTOS/FreeRTOS-Plus/Source/FreeRTOS-Plus-TCP/source/FreeRTOS_ARP.o
                                                  ./ra/aws/FreeRTOS/FreeRTOS-Plus/Source/FreeRTOS-Plus-TCP/source/FreeRTOS_IP.o
                                                  ./ra/aws/FreeRTOS/FreeRTOS-Plus/Source/FreeRTOS-Plus-TCP/source/FreeRTOS_Sockets.o
                                                  ./ra/aws/FreeRTOS/FreeRTOS-Plus/Source/FreeRTOS-Plus-TCP/source/FreeRTOS_TCP_IP.o
FreeRTOS_FindEndPointOnIP_IPv4                    ./ra/aws/FreeRTOS/FreeRTOS-Plus/Source/FreeRTOS-Plus-TCP/source/FreeRTOS_Routing.o
                                                  ./ra/aws/FreeRTOS/FreeRTOS-Plus/Source/FreeRTOS-Plus-TCP/source/FreeRTOS_ARP.o
                                                  ./ra/aws/FreeRTOS/FreeRTOS-Plus/Source/FreeRTOS-Plus-TCP/source/FreeRTOS_IPv4.o
                                                  ./ra/aws/FreeRTOS/FreeRTOS-Plus/Source/FreeRTOS-Plus-TCP/source/FreeRTOS_Sockets.o
xIsIPv4Loopback                                   ./ra/aws/FreeRTOS/FreeRTOS-Plus/Source/FreeRTOS-Plus-TCP/source/FreeRTOS_IPv4.o
                                                  ./ra/aws/FreeRTOS/FreeRTOS-Plus/Source/FreeRTOS-Plus-TCP/source/FreeRTOS_ARP.o
xIsIPv4Multicast                                  ./ra/aws/FreeRTOS/FreeRTOS-Plus/Source/FreeRTOS-Plus-TCP/source/FreeRTOS_IPv4.o
                                                  ./ra/aws/FreeRTOS/FreeRTOS-Plus/Source/FreeRTOS-Plus-TCP/source/FreeRTOS_ARP.o
vSetMultiCastIPv4MacAddress                       ./ra/aws/FreeRTOS/FreeRTOS-Plus/Source/FreeRTOS-Plus-TCP/source/FreeRTOS_IPv4_Utils.o
                                                  ./ra/aws/FreeRTOS/FreeRTOS-Plus/Source/FreeRTOS-Plus-TCP/source/FreeRTOS_ARP.o
FreeRTOS_FirstEndPoint                            ./ra/aws/FreeRTOS/FreeRTOS-Plus/Source/FreeRTOS-Plus-TCP/source/FreeRTOS_Routing.o
                                                  ./ra/aws/FreeRTOS/FreeRTOS-Plus/Source/FreeRTOS-Plus-TCP/source/FreeRTOS_ARP.o
                                                  ./ra/aws/FreeRTOS/FreeRTOS-Plus/Source/FreeRTOS-Plus-TCP/source/FreeRTOS_DNS.o
                                                  ./ra/aws/FreeRTOS/FreeRTOS-Plus/Source/FreeRTOS-Plus-TCP/source/FreeRTOS_IP.o
                                                  ./ra/aws/FreeRTOS/FreeRTOS-Plus/Source/FreeRTOS-Plus-TCP/source/FreeRTOS_IP_Utils.o
FreeRTOS_NextEndPoint                             ./ra/aws/FreeRTOS/FreeRTOS-Plus/Source/FreeRTOS-Plus-TCP/source/FreeRTOS_Routing.o
                                                  ./ra/aws/FreeRTOS/FreeRTOS-Plus/Source/FreeRTOS-Plus-TCP/source/FreeRTOS_ARP.o
                                                  ./ra/aws/FreeRTOS/FreeRTOS-Plus/Source/FreeRTOS-Plus-TCP/source/FreeRTOS_DNS.o
                                                  ./ra/aws/FreeRTOS/FreeRTOS-Plus/Source/FreeRTOS-Plus-TCP/source/FreeRTOS_IP_Utils.o
FreeRTOS_FindEndPointOnNetMask                    ./ra/aws/FreeRTOS/FreeRTOS-Plus/Source/FreeRTOS-Plus-TCP/source/FreeRTOS_Routing.o
                                                  ./ra/aws/FreeRTOS/FreeRTOS-Plus/Source/FreeRTOS-Plus-TCP/source/FreeRTOS_ARP.o
                                                  ./ra/aws/FreeRTOS/FreeRTOS-Plus/Source/FreeRTOS-Plus-TCP/source/FreeRTOS_IP.o
                                                  ./ra/aws/FreeRTOS/FreeRTOS-Plus/Source/FreeRTOS-Plus-TCP/source/FreeRTOS_TCP_Transmission.o
                                                  ./ra/aws/FreeRTOS/FreeRTOS-Plus/Source/FreeRTOS-Plus-TCP/source/FreeRTOS_UDP_IPv4.o
FreeRTOS_FindGateWay                              ./ra/aws/FreeRTOS/FreeRTOS-Plus/Source/FreeRTOS-Plus-TCP/source/FreeRTOS_Routing.o
                                                  ./ra/aws/FreeRTOS/FreeRTOS-Plus/Source/FreeRTOS-Plus-TCP/source/FreeRTOS_ARP.o
pxARPWaitingNetworkBuffer                         ./ra/aws/FreeRTOS/FreeRTOS-Plus/Source/FreeRTOS-Plus-TCP/source/FreeRTOS_IP.o
                                                  ./ra/aws/FreeRTOS/FreeRTOS-Plus/Source/FreeRTOS-Plus-TCP/source/FreeRTOS_ARP.o
                                                  ./ra/aws/FreeRTOS/FreeRTOS-Plus/Source/FreeRTOS-Plus-TCP/source/FreeRTOS_IP_Timers.o
uxIPHeaderSizePacket                              ./ra/aws/FreeRTOS/FreeRTOS-Plus/Source/FreeRTOS-Plus-TCP/source/FreeRTOS_IP.o
                                                  ./ra/aws/FreeRTOS/FreeRTOS-Plus/Source/FreeRTOS-Plus-TCP/source/FreeRTOS_ARP.o
                                                  ./ra/aws/FreeRTOS/FreeRTOS-Plus/Source/FreeRTOS-Plus-TCP/source/FreeRTOS_DNS.o
                                                  ./ra/aws/FreeRTOS/FreeRTOS-Plus/Source/FreeRTOS-Plus-TCP/source/FreeRTOS_ICMP.o
                                                  ./ra/aws/FreeRTOS/FreeRTOS-Plus/Source/FreeRTOS-Plus-TCP/source/FreeRTOS_Routing.o
                                                  ./ra/aws/FreeRTOS/FreeRTOS-Plus/Source/FreeRTOS-Plus-TCP/source/FreeRTOS_Sockets.o
                                                  ./ra/aws/FreeRTOS/FreeRTOS-Plus/Source/FreeRTOS-Plus-TCP/source/FreeRTOS_TCP_IP.o
                                                  ./ra/aws/FreeRTOS/FreeRTOS-Plus/Source/FreeRTOS-Plus-TCP/source/FreeRTOS_TCP_Reception.o
                                                  ./ra/aws/FreeRTOS/FreeRTOS-Plus/Source/FreeRTOS-Plus-TCP/source/FreeRTOS_TCP_State_Handling.o
                                                  ./ra/aws/FreeRTOS/FreeRTOS-Plus/Source/FreeRTOS-Plus-TCP/source/FreeRTOS_TCP_State_Handling_IPv4.o
                                                  ./ra/aws/FreeRTOS/FreeRTOS-Plus/Source/FreeRTOS-Plus-TCP/source/FreeRTOS_TCP_Transmission.o
                                                  ./ra/aws/FreeRTOS/FreeRTOS-Plus/Source/FreeRTOS-Plus-TCP/source/FreeRTOS_UDP_IPv4.o
vIPSetARPResolutionTimerEnableState               ./ra/aws/FreeRTOS/FreeRTOS-Plus/Source/FreeRTOS-Plus-TCP/source/FreeRTOS_IP_Timers.o
                                                  ./ra/aws/FreeRTOS/FreeRTOS-Plus/Source/FreeRTOS-Plus-TCP/source/FreeRTOS_ARP.o
                                                  ./ra/aws/FreeRTOS/FreeRTOS-Plus/Source/FreeRTOS-Plus-TCP/source/FreeRTOS_IP.o
xCheckRequiresARPResolution                       ./ra/aws/FreeRTOS/FreeRTOS-Plus/Source/FreeRTOS-Plus-TCP/source/FreeRTOS_ARP.o
                                                  ./ra/aws/FreeRTOS/FreeRTOS-Plus/Source/FreeRTOS-Plus-TCP/source/FreeRTOS_Routing.o
                                                  ./ra/aws/FreeRTOS/FreeRTOS-Plus/Source/FreeRTOS-Plus-TCP/source/FreeRTOS_UDP_IPv4.o
vARPRefreshCacheEntryAge                          ./ra/aws/FreeRTOS/FreeRTOS-Plus/Source/FreeRTOS-Plus-TCP/source/FreeRTOS_ARP.o
                                                  ./ra/aws/FreeRTOS/FreeRTOS-Plus/Source/FreeRTOS-Plus-TCP/source/FreeRTOS_IP.o
                                                  ./ra/aws/FreeRTOS/FreeRTOS-Plus/Source/FreeRTOS-Plus-TCP/source/FreeRTOS_UDP_IPv4.o
vARPAgeCache                                      ./ra/aws/FreeRTOS/FreeRTOS-Plus/Source/FreeRTOS-Plus-TCP/source/FreeRTOS_ARP.o
                                                  ./ra/aws/FreeRTOS/FreeRTOS-Plus/Source/FreeRTOS-Plus-TCP/source/FreeRTOS_IP.o
pxNetworkEndPoints                                ./ra/aws/FreeRTOS/FreeRTOS-Plus/Source/FreeRTOS-Plus-TCP/source/FreeRTOS_Routing.o
                                                  ./ra/aws/FreeRTOS/FreeRTOS-Plus/Source/FreeRTOS-Plus-TCP/source/FreeRTOS_ARP.o
                                                  ./ra/aws/FreeRTOS/FreeRTOS-Plus/Source/FreeRTOS-Plus-TCP/source/FreeRTOS_IP.o
                                                  ./ra/aws/FreeRTOS/FreeRTOS-Plus/Source/FreeRTOS-Plus-TCP/source/FreeRTOS_IP_Timers.o
FreeRTOS_OutputARPRequest                         ./ra/aws/FreeRTOS/FreeRTOS-Plus/Source/FreeRTOS-Plus-TCP/source/FreeRTOS_ARP.o
                                                  ./ra/aws/FreeRTOS/FreeRTOS-Plus/Source/FreeRTOS-Plus-TCP/source/FreeRTOS_TCP_Transmission_IPv4.o
xSendEventToIPTask                                ./ra/aws/FreeRTOS/FreeRTOS-Plus/Source/FreeRTOS-Plus-TCP/source/FreeRTOS_IP.o
                                                  ./ra/aws/FreeRTOS/FreeRTOS-Plus/Source/FreeRTOS-Plus-TCP/source/FreeRTOS_ARP.o
                                                  ./ra/aws/FreeRTOS/FreeRTOS-Plus/Source/FreeRTOS-Plus-TCP/source/FreeRTOS_IP_Timers.o
                                                  ./ra/aws/FreeRTOS/FreeRTOS-Plus/Source/FreeRTOS-Plus-TCP/source/FreeRTOS_Sockets.o
vARPGenerateRequestPacket                         ./ra/aws/FreeRTOS/FreeRTOS-Plus/Source/FreeRTOS-Plus-TCP/source/FreeRTOS_ARP.o
                                                  ./ra/aws/FreeRTOS/FreeRTOS-Plus/Source/FreeRTOS-Plus-TCP/source/FreeRTOS_UDP_IPv4.o
FreeRTOS_ClearARP                                 ./ra/aws/FreeRTOS/FreeRTOS-Plus/Source/FreeRTOS-Plus-TCP/source/FreeRTOS_ARP.o
                                                  ./ra/aws/FreeRTOS/FreeRTOS-Plus/Source/FreeRTOS-Plus-TCP/source/FreeRTOS_IP_Utils.o
xLLMNR_MacAddress                                 ./ra/aws/FreeRTOS/FreeRTOS-Plus/Source/FreeRTOS-Plus-TCP/source/FreeRTOS_DNS.o
                                                  ./ra/aws/FreeRTOS/FreeRTOS-Plus/Source/FreeRTOS-Plus-TCP/source/FreeRTOS_IP.o
xLLMNR_MacAddressIPv6                             ./ra/aws/FreeRTOS/FreeRTOS-Plus/Source/FreeRTOS-Plus-TCP/source/FreeRTOS_DNS.o
                                                  ./ra/aws/FreeRTOS/FreeRTOS-Plus/Source/FreeRTOS-Plus-TCP/source/FreeRTOS_IP.o
xMDNS_MacAddress                                  ./ra/aws/FreeRTOS/FreeRTOS-Plus/Source/FreeRTOS-Plus-TCP/source/FreeRTOS_DNS.o
                                                  ./ra/aws/FreeRTOS/FreeRTOS-Plus/Source/FreeRTOS-Plus-TCP/source/FreeRTOS_IP.o
xMDNS_MacAddressIPv6                              ./ra/aws/FreeRTOS/FreeRTOS-Plus/Source/FreeRTOS-Plus-TCP/source/FreeRTOS_DNS.o
                                                  ./ra/aws/FreeRTOS/FreeRTOS-Plus/Source/FreeRTOS-Plus-TCP/source/FreeRTOS_IP.o
FreeRTOS_dnsclear                                 ./ra/aws/FreeRTOS/FreeRTOS-Plus/Source/FreeRTOS-Plus-TCP/source/FreeRTOS_DNS_Cache.o
                                                  ./ra/aws/FreeRTOS/FreeRTOS-Plus/Source/FreeRTOS-Plus-TCP/source/FreeRTOS_IP.o
FreeRTOS_socket                                   ./ra/aws/FreeRTOS/FreeRTOS-Plus/Source/FreeRTOS-Plus-TCP/source/FreeRTOS_Sockets.o
                                                  ./ra/aws/FreeRTOS/FreeRTOS-Plus/Source/FreeRTOS-Plus-TCP/source/FreeRTOS_DNS_Networking.o
                                                  ./ra/aws/FreeRTOS/FreeRTOS-Plus/Source/FreeRTOS-Plus-TCP/source/FreeRTOS_TCP_State_Handling_IPv4.o
usChar2u16                                        ./ra/aws/FreeRTOS/FreeRTOS-Plus/Source/FreeRTOS-Plus-TCP/source/FreeRTOS_IP_Utils.o
                                                  ./ra/aws/FreeRTOS/FreeRTOS-Plus/Source/FreeRTOS-Plus-TCP/source/FreeRTOS_DNS_Parser.o
                                                  ./ra/aws/FreeRTOS/FreeRTOS-Plus/Source/FreeRTOS-Plus-TCP/source/FreeRTOS_TCP_Reception.o
ProcessICMPPacket                                 ./ra/aws/FreeRTOS/FreeRTOS-Plus/Source/FreeRTOS-Plus-TCP/source/FreeRTOS_ICMP.o
                                                  ./ra/aws/FreeRTOS/FreeRTOS-Plus/Source/FreeRTOS-Plus-TCP/source/FreeRTOS_IP.o
usGenerateChecksum                                ./ra/aws/FreeRTOS/FreeRTOS-Plus/Source/FreeRTOS-Plus-TCP/source/FreeRTOS_IP_Utils.o
                                                  ./ra/aws/FreeRTOS/FreeRTOS-Plus/Source/FreeRTOS-Plus-TCP/source/FreeRTOS_ICMP.o
                                                  ./ra/aws/FreeRTOS/FreeRTOS-Plus/Source/FreeRTOS-Plus-TCP/source/FreeRTOS_TCP_Transmission_IPv4.o
                                                  ./ra/aws/FreeRTOS/FreeRTOS-Plus/Source/FreeRTOS-Plus-TCP/source/FreeRTOS_UDP_IPv4.o
usGenerateProtocolChecksum                        ./ra/aws/FreeRTOS/FreeRTOS-Plus/Source/FreeRTOS-Plus-TCP/source/FreeRTOS_IP_Utils.o
                                                  ./ra/aws/FreeRTOS/FreeRTOS-Plus/Source/FreeRTOS-Plus-TCP/source/FreeRTOS_ICMP.o
                                                  ./ra/aws/FreeRTOS/FreeRTOS-Plus/Source/FreeRTOS-Plus-TCP/source/FreeRTOS_TCP_Transmission_IPv4.o
                                                  ./ra/aws/FreeRTOS/FreeRTOS-Plus/Source/FreeRTOS-Plus-TCP/source/FreeRTOS_UDP_IPv4.o
FreeRTOS_GetIPTaskHandle                          ./ra/aws/FreeRTOS/FreeRTOS-Plus/Source/FreeRTOS-Plus-TCP/source/FreeRTOS_IP.o
                                                  ./ra/aws/FreeRTOS/FreeRTOS-Plus/Source/FreeRTOS-Plus-TCP/source/FreeRTOS_IP_Utils.o
vARPTimerReload                                   ./ra/aws/FreeRTOS/FreeRTOS-Plus/Source/FreeRTOS-Plus-TCP/source/FreeRTOS_IP_Timers.o
                                                  ./ra/aws/FreeRTOS/FreeRTOS-Plus/Source/FreeRTOS-Plus-TCP/source/FreeRTOS_IP.o
FreeRTOS_NetworkDown                              ./ra/aws/FreeRTOS/FreeRTOS-Plus/Source/FreeRTOS-Plus-TCP/source/FreeRTOS_IP.o
                                                  ./ra/aws/FreeRTOS/FreeRTOS-Plus/Source/FreeRTOS-Plus-TCP/source/FreeRTOS_IP_Timers.o
xNetworkEventQueue                                ./ra/aws/FreeRTOS/FreeRTOS-Plus/Source/FreeRTOS-Plus-TCP/source/FreeRTOS_IP.o
                                                  ./ra/aws/FreeRTOS/FreeRTOS-Plus/Source/FreeRTOS-Plus-TCP/source/FreeRTOS_IP_Timers.o
                                                  ./ra/aws/FreeRTOS/FreeRTOS-Plus/Source/FreeRTOS-Plus-TCP/source/FreeRTOS_IP_Utils.o
vIPSetTCPTimerExpiredState                        ./ra/aws/FreeRTOS/FreeRTOS-Plus/Source/FreeRTOS-Plus-TCP/source/FreeRTOS_IP_Timers.o
                                                  ./ra/aws/FreeRTOS/FreeRTOS-Plus/Source/FreeRTOS-Plus-TCP/source/FreeRTOS_IP.o
FreeRTOS_FillEndPoint                             ./ra/aws/FreeRTOS/FreeRTOS-Plus/Source/FreeRTOS-Plus-TCP/source/FreeRTOS_Routing.o
                                                  ./ra/aws/FreeRTOS/FreeRTOS-Plus/Source/FreeRTOS-Plus-TCP/source/FreeRTOS_IP.o
FreeRTOS_IPInit_Multi                             ./ra/aws/FreeRTOS/FreeRTOS-Plus/Source/FreeRTOS-Plus-TCP/source/FreeRTOS_IP.o
FreeRTOS_FirstNetworkInterface                    ./ra/aws/FreeRTOS/FreeRTOS-Plus/Source/FreeRTOS-Plus-TCP/source/FreeRTOS_Routing.o
                                                  ./ra/aws/FreeRTOS/FreeRTOS-Plus/Source/FreeRTOS-Plus-TCP/source/FreeRTOS_IP.o
vPreCheckConfigs                                  ./ra/aws/FreeRTOS/FreeRTOS-Plus/Source/FreeRTOS-Plus-TCP/source/FreeRTOS_IP_Utils.o
                                                  ./ra/aws/FreeRTOS/FreeRTOS-Plus/Source/FreeRTOS-Plus-TCP/source/FreeRTOS_IP.o
vNetworkSocketsInit                               ./ra/aws/FreeRTOS/FreeRTOS-Plus/Source/FreeRTOS-Plus-TCP/source/FreeRTOS_Sockets.o
                                                  ./ra/aws/FreeRTOS/FreeRTOS-Plus/Source/FreeRTOS-Plus-TCP/source/FreeRTOS_IP.o
vNetworkTimerReload                               ./ra/aws/FreeRTOS/FreeRTOS-Plus/Source/FreeRTOS-Plus-TCP/source/FreeRTOS_IP_Timers.o
                                                  ./ra/aws/FreeRTOS/FreeRTOS-Plus/Source/FreeRTOS-Plus-TCP/source/FreeRTOS_IP.o
pxNetworkInterfaces                               ./ra/aws/FreeRTOS/FreeRTOS-Plus/Source/FreeRTOS-Plus-TCP/source/FreeRTOS_Routing.o
                                                  ./ra/aws/FreeRTOS/FreeRTOS-Plus/Source/FreeRTOS-Plus-TCP/source/FreeRTOS_IP.o
                                                  ./ra/aws/FreeRTOS/FreeRTOS-Plus/Source/FreeRTOS-Plus-TCP/source/FreeRTOS_IP_Timers.o
vTCPTimerReload                                   ./ra/aws/FreeRTOS/FreeRTOS-Plus/Source/FreeRTOS-Plus-TCP/source/FreeRTOS_IP_Timers.o
                                                  ./ra/aws/FreeRTOS/FreeRTOS-Plus/Source/FreeRTOS-Plus-TCP/source/FreeRTOS_IP.o
vCheckNetworkTimers                               ./ra/aws/FreeRTOS/FreeRTOS-Plus/Source/FreeRTOS-Plus-TCP/source/FreeRTOS_IP_Timers.o
                                                  ./ra/aws/FreeRTOS/FreeRTOS-Plus/Source/FreeRTOS-Plus-TCP/source/FreeRTOS_IP.o
xCalculateSleepTime                               ./ra/aws/FreeRTOS/FreeRTOS-Plus/Source/FreeRTOS-Plus-TCP/source/FreeRTOS_IP_Timers.o
                                                  ./ra/aws/FreeRTOS/FreeRTOS-Plus/Source/FreeRTOS-Plus-TCP/source/FreeRTOS_IP.o
prvProcessNetworkDownEvent                        ./ra/aws/FreeRTOS/FreeRTOS-Plus/Source/FreeRTOS-Plus-TCP/source/FreeRTOS_IP_Utils.o
                                                  ./ra/aws/FreeRTOS/FreeRTOS-Plus/Source/FreeRTOS-Plus-TCP/source/FreeRTOS_IP.o
xTCPCheckNewClient                                ./ra/aws/FreeRTOS/FreeRTOS-Plus/Source/FreeRTOS-Plus-TCP/source/FreeRTOS_TCP_IP.o
                                                  ./ra/aws/FreeRTOS/FreeRTOS-Plus/Source/FreeRTOS-Plus-TCP/source/FreeRTOS_IP.o
vSocketBind                                       ./ra/aws/FreeRTOS/FreeRTOS-Plus/Source/FreeRTOS-Plus-TCP/source/FreeRTOS_Sockets.o
                                                  ./ra/aws/FreeRTOS/FreeRTOS-Plus/Source/FreeRTOS-Plus-TCP/source/FreeRTOS_IP.o
                                                  ./ra/aws/FreeRTOS/FreeRTOS-Plus/Source/FreeRTOS-Plus-TCP/source/FreeRTOS_TCP_State_Handling.o
vSocketWakeUpUser                                 ./ra/aws/FreeRTOS/FreeRTOS-Plus/Source/FreeRTOS-Plus-TCP/source/FreeRTOS_Sockets.o
                                                  ./ra/aws/FreeRTOS/FreeRTOS-Plus/Source/FreeRTOS-Plus-TCP/source/FreeRTOS_IP.o
                                                  ./ra/aws/FreeRTOS/FreeRTOS-Plus/Source/FreeRTOS-Plus-TCP/source/FreeRTOS_TCP_IP.o
vProcessGeneratedUDPPacket                        ./ra/aws/FreeRTOS/FreeRTOS-Plus/Source/FreeRTOS-Plus-TCP/source/FreeRTOS_UDP_IP.o
                                                  ./ra/aws/FreeRTOS/FreeRTOS-Plus/Source/FreeRTOS-Plus-TCP/source/FreeRTOS_IP.o
vSocketClose                                      ./ra/aws/FreeRTOS/FreeRTOS-Plus/Source/FreeRTOS-Plus-TCP/source/FreeRTOS_Sockets.o
                                                  ./ra/aws/FreeRTOS/FreeRTOS-Plus/Source/FreeRTOS-Plus-TCP/source/FreeRTOS_IP.o
                                                  ./ra/aws/FreeRTOS/FreeRTOS-Plus/Source/FreeRTOS-Plus-TCP/source/FreeRTOS_TCP_IP.o
                                                  ./ra/aws/FreeRTOS/FreeRTOS-Plus/Source/FreeRTOS-Plus-TCP/source/FreeRTOS_TCP_State_Handling.o
                                                  ./ra/aws/FreeRTOS/FreeRTOS-Plus/Source/FreeRTOS-Plus-TCP/source/FreeRTOS_TCP_State_Handling_IPv4.o
FreeRTOS_NextNetworkInterface                     ./ra/aws/FreeRTOS/FreeRTOS-Plus/Source/FreeRTOS-Plus-TCP/source/FreeRTOS_Routing.o
                                                  ./ra/aws/FreeRTOS/FreeRTOS-Plus/Source/FreeRTOS-Plus-TCP/source/FreeRTOS_IP.o
vReturnEthernetFrame                              ./ra/aws/FreeRTOS/FreeRTOS-Plus/Source/FreeRTOS-Plus-TCP/source/FreeRTOS_IP.o
prvAllowIPPacketIPv4                              ./ra/aws/FreeRTOS/FreeRTOS-Plus/Source/FreeRTOS-Plus-TCP/source/FreeRTOS_IPv4.o
                                                  ./ra/aws/FreeRTOS/FreeRTOS-Plus/Source/FreeRTOS-Plus-TCP/source/FreeRTOS_IP.o
prvCheckIP4HeaderOptions                          ./ra/aws/FreeRTOS/FreeRTOS-Plus/Source/FreeRTOS-Plus-TCP/source/FreeRTOS_IPv4.o
                                                  ./ra/aws/FreeRTOS/FreeRTOS-Plus/Source/FreeRTOS-Plus-TCP/source/FreeRTOS_IP.o
xCheckRequiresResolution                          ./ra/aws/FreeRTOS/FreeRTOS-Plus/Source/FreeRTOS-Plus-TCP/source/FreeRTOS_Routing.o
                                                  ./ra/aws/FreeRTOS/FreeRTOS-Plus/Source/FreeRTOS-Plus-TCP/source/FreeRTOS_IP.o
vIPTimerStartARPResolution                        ./ra/aws/FreeRTOS/FreeRTOS-Plus/Source/FreeRTOS-Plus-TCP/source/FreeRTOS_IP_Timers.o
                                                  ./ra/aws/FreeRTOS/FreeRTOS-Plus/Source/FreeRTOS-Plus-TCP/source/FreeRTOS_IP.o
xProcessReceivedTCPPacket                         ./ra/aws/FreeRTOS/FreeRTOS-Plus/Source/FreeRTOS-Plus-TCP/source/FreeRTOS_TCP_IP.o
                                                  ./ra/aws/FreeRTOS/FreeRTOS-Plus/Source/FreeRTOS-Plus-TCP/source/FreeRTOS_IP.o
xProcessReceivedUDPPacket                         ./ra/aws/FreeRTOS/FreeRTOS-Plus/Source/FreeRTOS-Plus-TCP/source/FreeRTOS_UDP_IP.o
                                                  ./ra/aws/FreeRTOS/FreeRTOS-Plus/Source/FreeRTOS-Plus-TCP/source/FreeRTOS_IP.o
xIPIsNetworkTaskReady                             ./ra/aws/FreeRTOS/FreeRTOS-Plus/Source/FreeRTOS-Plus-TCP/source/FreeRTOS_IP.o
                                                  ./ra/aws/FreeRTOS/FreeRTOS-Plus/Source/FreeRTOS-Plus-TCP/source/FreeRTOS_IP_Utils.o
                                                  ./ra/aws/FreeRTOS/FreeRTOS-Plus/Source/FreeRTOS-Plus-TCP/source/FreeRTOS_Sockets.o
FreeRTOS_FindEndPointOnMAC                        ./ra/aws/FreeRTOS/FreeRTOS-Plus/Source/FreeRTOS-Plus-TCP/source/FreeRTOS_Routing.o
                                                  ./ra/aws/FreeRTOS/FreeRTOS-Plus/Source/FreeRTOS-Plus-TCP/source/FreeRTOS_IP.o
uxIPHeaderSizeSocket                              ./ra/aws/FreeRTOS/FreeRTOS-Plus/Source/FreeRTOS-Plus-TCP/source/FreeRTOS_IP.o
                                                  ./ra/aws/FreeRTOS/FreeRTOS-Plus/Source/FreeRTOS-Plus-TCP/source/FreeRTOS_TCP_IP.o
                                                  ./ra/aws/FreeRTOS/FreeRTOS-Plus/Source/FreeRTOS-Plus-TCP/source/FreeRTOS_TCP_State_Handling.o
                                                  ./ra/aws/FreeRTOS/FreeRTOS-Plus/Source/FreeRTOS-Plus-TCP/source/FreeRTOS_TCP_Transmission.o
usPacketIdentifier                                ./ra/aws/FreeRTOS/FreeRTOS-Plus/Source/FreeRTOS-Plus-TCP/source/FreeRTOS_IP.o
                                                  ./ra/aws/FreeRTOS/FreeRTOS-Plus/Source/FreeRTOS-Plus-TCP/source/FreeRTOS_TCP_Transmission_IPv4.o
xTCPTimerCheck                                    ./ra/aws/FreeRTOS/FreeRTOS-Plus/Source/FreeRTOS-Plus-TCP/source/FreeRTOS_Sockets.o
                                                  ./ra/aws/FreeRTOS/FreeRTOS-Plus/Source/FreeRTOS-Plus-TCP/source/FreeRTOS_IP_Timers.o
vSocketCloseNextTime                              ./ra/aws/FreeRTOS/FreeRTOS-Plus/Source/FreeRTOS-Plus-TCP/source/FreeRTOS_TCP_IP.o
                                                  ./ra/aws/FreeRTOS/FreeRTOS-Plus/Source/FreeRTOS-Plus-TCP/source/FreeRTOS_IP_Timers.o
vSocketListenNextTime                             ./ra/aws/FreeRTOS/FreeRTOS-Plus/Source/FreeRTOS-Plus-TCP/source/FreeRTOS_TCP_IP.o
                                                  ./ra/aws/FreeRTOS/FreeRTOS-Plus/Source/FreeRTOS-Plus-TCP/source/FreeRTOS_IP_Timers.o
vSetAllNetworksUp                                 ./ra/aws/FreeRTOS/FreeRTOS-Plus/Source/FreeRTOS-Plus-TCP/source/FreeRTOS_IP_Timers.o
                                                  ./ra/aws/FreeRTOS/FreeRTOS-Plus/Source/FreeRTOS-Plus-TCP/source/FreeRTOS_IP_Utils.o
vIPSetARPTimerEnableState                         ./ra/aws/FreeRTOS/FreeRTOS-Plus/Source/FreeRTOS-Plus-TCP/source/FreeRTOS_IP_Timers.o
                                                  ./ra/aws/FreeRTOS/FreeRTOS-Plus/Source/FreeRTOS-Plus-TCP/source/FreeRTOS_IP_Utils.o
prvChecksumIPv4Checks                             ./ra/aws/FreeRTOS/FreeRTOS-Plus/Source/FreeRTOS-Plus-TCP/source/FreeRTOS_IPv4_Utils.o
                                                  ./ra/aws/FreeRTOS/FreeRTOS-Plus/Source/FreeRTOS-Plus-TCP/source/FreeRTOS_IP_Utils.o
FreeRTOS_min_int32                                ./ra/aws/FreeRTOS/FreeRTOS-Plus/Source/FreeRTOS-Plus-TCP/source/FreeRTOS_IP_Utils.o
                                                  ./ra/aws/FreeRTOS/FreeRTOS-Plus/Source/FreeRTOS-Plus-TCP/source/FreeRTOS_Sockets.o
                                                  ./ra/aws/FreeRTOS/FreeRTOS-Plus/Source/FreeRTOS-Plus-TCP/source/FreeRTOS_TCP_Reception.o
FreeRTOS_min_uint32                               ./ra/aws/FreeRTOS/FreeRTOS-Plus/Source/FreeRTOS-Plus-TCP/source/FreeRTOS_IP_Utils.o
                                                  ./ra/aws/FreeRTOS/FreeRTOS-Plus/Source/FreeRTOS-Plus-TCP/source/FreeRTOS_TCP_Transmission.o
                                                  ./ra/aws/FreeRTOS/FreeRTOS-Plus/Source/FreeRTOS-Plus-TCP/source/FreeRTOS_TCP_Utils_IPv4.o
FreeRTOS_min_size_t                               ./ra/aws/FreeRTOS/FreeRTOS-Plus/Source/FreeRTOS-Plus-TCP/source/FreeRTOS_IP_Utils.o
                                                  ./ra/aws/FreeRTOS/FreeRTOS-Plus/Source/FreeRTOS-Plus-TCP/source/FreeRTOS_Stream_Buffer.o
FreeRTOS_round_up                                 ./ra/aws/FreeRTOS/FreeRTOS-Plus/Source/FreeRTOS-Plus-TCP/source/FreeRTOS_IP_Utils.o
                                                  ./ra/aws/FreeRTOS/FreeRTOS-Plus/Source/FreeRTOS-Plus-TCP/source/FreeRTOS_Sockets.o
__aeabi_memmove                                   D:\Renesas\RA\e2studio_v2023-07_fsp_v4.6.0\toolchains\llvm_arm\LLVM-ET-Arm-18.1.3-Windows-x86_64\bin\..\lib\clang-runtimes/arm-none-eabi/armv7em_hard_fpv4_sp_d16_exn_rtti\lib\libc.a(memmove.c.o)
                                                  ./ra/aws/FreeRTOS/FreeRTOS-Plus/Source/FreeRTOS-Plus-TCP/source/FreeRTOS_IPv4.o
FreeRTOS_inet_pton4                               ./ra/aws/FreeRTOS/FreeRTOS-Plus/Source/FreeRTOS-Plus-TCP/source/FreeRTOS_IPv4_Sockets.o
                                                  ./ra/aws/FreeRTOS/FreeRTOS-Plus/Source/FreeRTOS-Plus-TCP/source/FreeRTOS_Sockets.o
pxEasyFit                                         ./ra/aws/FreeRTOS/FreeRTOS-Plus/Source/FreeRTOS-Plus-TCP/source/FreeRTOS_Routing.o
xBoundUDPSocketsList                              ./ra/aws/FreeRTOS/FreeRTOS-Plus/Source/FreeRTOS-Plus-TCP/source/FreeRTOS_Sockets.o
xBoundTCPSocketsList                              ./ra/aws/FreeRTOS/FreeRTOS-Plus/Source/FreeRTOS-Plus-TCP/source/FreeRTOS_Sockets.o
                                                  ./ra/aws/FreeRTOS/FreeRTOS-Plus/Source/FreeRTOS-Plus-TCP/source/FreeRTOS_TCP_IP.o
pxUDPSocketLookup                                 ./ra/aws/FreeRTOS/FreeRTOS-Plus/Source/FreeRTOS-Plus-TCP/source/FreeRTOS_Sockets.o
                                                  ./ra/aws/FreeRTOS/FreeRTOS-Plus/Source/FreeRTOS-Plus-TCP/source/FreeRTOS_UDP_IPv4.o
FreeRTOS_GetLocalAddress                          ./ra/aws/FreeRTOS/FreeRTOS-Plus/Source/FreeRTOS-Plus-TCP/source/FreeRTOS_Sockets.o
                                                  ./ra/aws/FreeRTOS/FreeRTOS-Plus/Source/FreeRTOS-Plus-TCP/source/FreeRTOS_TCP_State_Handling.o
vTCPStateChange                                   ./ra/aws/FreeRTOS/FreeRTOS-Plus/Source/FreeRTOS-Plus-TCP/source/FreeRTOS_TCP_IP.o
                                                  ./ra/aws/FreeRTOS/FreeRTOS-Plus/Source/FreeRTOS-Plus-TCP/source/FreeRTOS_Sockets.o
                                                  ./ra/aws/FreeRTOS/FreeRTOS-Plus/Source/FreeRTOS-Plus-TCP/source/FreeRTOS_TCP_State_Handling.o
                                                  ./ra/aws/FreeRTOS/FreeRTOS-Plus/Source/FreeRTOS-Plus-TCP/source/FreeRTOS_TCP_State_Handling_IPv4.o
                                                  ./ra/aws/FreeRTOS/FreeRTOS-Plus/Source/FreeRTOS-Plus-TCP/source/FreeRTOS_TCP_Transmission.o
uxStreamBufferGet                                 ./ra/aws/FreeRTOS/FreeRTOS-Plus/Source/FreeRTOS-Plus-TCP/source/FreeRTOS_Stream_Buffer.o
                                                  ./ra/aws/FreeRTOS/FreeRTOS-Plus/Source/FreeRTOS-Plus-TCP/source/FreeRTOS_Sockets.o
                                                  ./ra/aws/FreeRTOS/FreeRTOS-Plus/Source/FreeRTOS-Plus-TCP/source/FreeRTOS_TCP_State_Handling.o
                                                  ./ra/aws/FreeRTOS/FreeRTOS-Plus/Source/FreeRTOS-Plus-TCP/source/FreeRTOS_TCP_Transmission.o
uxStreamBufferFrontSpace                          ./ra/aws/FreeRTOS/FreeRTOS-Plus/Source/FreeRTOS-Plus-TCP/source/FreeRTOS_Stream_Buffer.o
                                                  ./ra/aws/FreeRTOS/FreeRTOS-Plus/Source/FreeRTOS-Plus-TCP/source/FreeRTOS_Sockets.o
                                                  ./ra/aws/FreeRTOS/FreeRTOS-Plus/Source/FreeRTOS-Plus-TCP/source/FreeRTOS_TCP_Transmission.o
uxStreamBufferGetSpace                            ./ra/aws/FreeRTOS/FreeRTOS-Plus/Source/FreeRTOS-Plus-TCP/source/FreeRTOS_Stream_Buffer.o
                                                  ./ra/aws/FreeRTOS/FreeRTOS-Plus/Source/FreeRTOS-Plus-TCP/source/FreeRTOS_Sockets.o
                                                  ./ra/aws/FreeRTOS/FreeRTOS-Plus/Source/FreeRTOS-Plus-TCP/source/FreeRTOS_TCP_Reception.o
uxStreamBufferAdd                                 ./ra/aws/FreeRTOS/FreeRTOS-Plus/Source/FreeRTOS-Plus-TCP/source/FreeRTOS_Stream_Buffer.o
                                                  ./ra/aws/FreeRTOS/FreeRTOS-Plus/Source/FreeRTOS-Plus-TCP/source/FreeRTOS_Sockets.o
FreeRTOS_listen                                   ./ra/aws/FreeRTOS/FreeRTOS-Plus/Source/FreeRTOS-Plus-TCP/source/FreeRTOS_Sockets.o
                                                  ./ra/aws/FreeRTOS/FreeRTOS-Plus/Source/FreeRTOS-Plus-TCP/source/FreeRTOS_TCP_IP.o
vStreamBufferClear                                ./ra/aws/FreeRTOS/FreeRTOS-Plus/Source/FreeRTOS-Plus-TCP/source/FreeRTOS_Stream_Buffer.o
                                                  ./ra/aws/FreeRTOS/FreeRTOS-Plus/Source/FreeRTOS-Plus-TCP/source/FreeRTOS_Sockets.o
xTCPSocketCheck                                   ./ra/aws/FreeRTOS/FreeRTOS-Plus/Source/FreeRTOS-Plus-TCP/source/FreeRTOS_TCP_IP.o
                                                  ./ra/aws/FreeRTOS/FreeRTOS-Plus/Source/FreeRTOS-Plus-TCP/source/FreeRTOS_Sockets.o
pxTCPSocketLookup                                 ./ra/aws/FreeRTOS/FreeRTOS-Plus/Source/FreeRTOS-Plus-TCP/source/FreeRTOS_Sockets.o
                                                  ./ra/aws/FreeRTOS/FreeRTOS-Plus/Source/FreeRTOS-Plus-TCP/source/FreeRTOS_TCP_IP.o
lTCPAddRxdata                                     ./ra/aws/FreeRTOS/FreeRTOS-Plus/Source/FreeRTOS-Plus-TCP/source/FreeRTOS_Sockets.o
                                                  ./ra/aws/FreeRTOS/FreeRTOS-Plus/Source/FreeRTOS-Plus-TCP/source/FreeRTOS_TCP_Reception.o
uxStreamBufferDistance                            ./ra/aws/FreeRTOS/FreeRTOS-Plus/Source/FreeRTOS-Plus-TCP/source/FreeRTOS_Stream_Buffer.o
                                                  ./ra/aws/FreeRTOS/FreeRTOS-Plus/Source/FreeRTOS-Plus-TCP/source/FreeRTOS_TCP_Transmission.o
uxStreamBufferMidSpace                            ./ra/aws/FreeRTOS/FreeRTOS-Plus/Source/FreeRTOS-Plus-TCP/source/FreeRTOS_Stream_Buffer.o
                                                  ./ra/aws/FreeRTOS/FreeRTOS-Plus/Source/FreeRTOS-Plus-TCP/source/FreeRTOS_TCP_Transmission.o
vStreamBufferMoveMid                              ./ra/aws/FreeRTOS/FreeRTOS-Plus/Source/FreeRTOS-Plus-TCP/source/FreeRTOS_Stream_Buffer.o
                                                  ./ra/aws/FreeRTOS/FreeRTOS-Plus/Source/FreeRTOS-Plus-TCP/source/FreeRTOS_TCP_Transmission.o
prvTCPAddTxData                                   ./ra/aws/FreeRTOS/FreeRTOS-Plus/Source/FreeRTOS-Plus-TCP/source/FreeRTOS_TCP_Transmission.o
                                                  ./ra/aws/FreeRTOS/FreeRTOS-Plus/Source/FreeRTOS-Plus-TCP/source/FreeRTOS_TCP_IP.o
                                                  ./ra/aws/FreeRTOS/FreeRTOS-Plus/Source/FreeRTOS-Plus-TCP/source/FreeRTOS_TCP_State_Handling.o
prvTCPSendPacket                                  ./ra/aws/FreeRTOS/FreeRTOS-Plus/Source/FreeRTOS-Plus-TCP/source/FreeRTOS_TCP_Transmission.o
                                                  ./ra/aws/FreeRTOS/FreeRTOS-Plus/Source/FreeRTOS-Plus-TCP/source/FreeRTOS_TCP_IP.o
xTCPWindowTxHasData                               ./ra/aws/FreeRTOS/FreeRTOS-Plus/Source/FreeRTOS-Plus-TCP/source/FreeRTOS_Tiny_TCP.o
                                                  ./ra/aws/FreeRTOS/FreeRTOS-Plus/Source/FreeRTOS-Plus-TCP/source/FreeRTOS_TCP_IP.o
prvTCPStatusAgeCheck                              ./ra/aws/FreeRTOS/FreeRTOS-Plus/Source/FreeRTOS-Plus-TCP/source/FreeRTOS_TCP_State_Handling.o
                                                  ./ra/aws/FreeRTOS/FreeRTOS-Plus/Source/FreeRTOS-Plus-TCP/source/FreeRTOS_TCP_IP.o
prvTCPSocketIsActive                              ./ra/aws/FreeRTOS/FreeRTOS-Plus/Source/FreeRTOS-Plus-TCP/source/FreeRTOS_TCP_State_Handling.o
                                                  ./ra/aws/FreeRTOS/FreeRTOS-Plus/Source/FreeRTOS-Plus-TCP/source/FreeRTOS_TCP_IP.o
prvHandleListen                                   ./ra/aws/FreeRTOS/FreeRTOS-Plus/Source/FreeRTOS-Plus-TCP/source/FreeRTOS_TCP_State_Handling.o
                                                  ./ra/aws/FreeRTOS/FreeRTOS-Plus/Source/FreeRTOS-Plus-TCP/source/FreeRTOS_TCP_IP.o
prvTCPSendReset                                   ./ra/aws/FreeRTOS/FreeRTOS-Plus/Source/FreeRTOS-Plus-TCP/source/FreeRTOS_TCP_Transmission.o
                                                  ./ra/aws/FreeRTOS/FreeRTOS-Plus/Source/FreeRTOS-Plus-TCP/source/FreeRTOS_TCP_IP.o
                                                  ./ra/aws/FreeRTOS/FreeRTOS-Plus/Source/FreeRTOS-Plus-TCP/source/FreeRTOS_TCP_Reception.o
                                                  ./ra/aws/FreeRTOS/FreeRTOS-Plus/Source/FreeRTOS-Plus-TCP/source/FreeRTOS_TCP_State_Handling_IPv4.o
prvCheckOptions                                   ./ra/aws/FreeRTOS/FreeRTOS-Plus/Source/FreeRTOS-Plus-TCP/source/FreeRTOS_TCP_Reception.o
                                                  ./ra/aws/FreeRTOS/FreeRTOS-Plus/Source/FreeRTOS-Plus-TCP/source/FreeRTOS_TCP_IP.o
prvTCPHandleState                                 ./ra/aws/FreeRTOS/FreeRTOS-Plus/Source/FreeRTOS-Plus-TCP/source/FreeRTOS_TCP_State_Handling.o
                                                  ./ra/aws/FreeRTOS/FreeRTOS-Plus/Source/FreeRTOS-Plus-TCP/source/FreeRTOS_TCP_IP.o
xSequenceGreaterThan                              ./ra/aws/FreeRTOS/FreeRTOS-Plus/Source/FreeRTOS-Plus-TCP/source/FreeRTOS_TCP_WIN.o
                                                  ./ra/aws/FreeRTOS/FreeRTOS-Plus/Source/FreeRTOS-Plus-TCP/source/FreeRTOS_TCP_IP.o
xSequenceLessThan                                 ./ra/aws/FreeRTOS/FreeRTOS-Plus/Source/FreeRTOS-Plus-TCP/source/FreeRTOS_TCP_WIN.o
                                                  ./ra/aws/FreeRTOS/FreeRTOS-Plus/Source/FreeRTOS-Plus-TCP/source/FreeRTOS_TCP_IP.o
prvTCPSendChallengeAck                            ./ra/aws/FreeRTOS/FreeRTOS-Plus/Source/FreeRTOS-Plus-TCP/source/FreeRTOS_TCP_Transmission.o
                                                  ./ra/aws/FreeRTOS/FreeRTOS-Plus/Source/FreeRTOS-Plus-TCP/source/FreeRTOS_TCP_IP.o
prvCheckRxData                                    ./ra/aws/FreeRTOS/FreeRTOS-Plus/Source/FreeRTOS-Plus-TCP/source/FreeRTOS_TCP_Reception.o
                                                  ./ra/aws/FreeRTOS/FreeRTOS-Plus/Source/FreeRTOS-Plus-TCP/source/FreeRTOS_TCP_State_Handling.o
prvStoreRxData                                    ./ra/aws/FreeRTOS/FreeRTOS-Plus/Source/FreeRTOS-Plus-TCP/source/FreeRTOS_TCP_Reception.o
                                                  ./ra/aws/FreeRTOS/FreeRTOS-Plus/Source/FreeRTOS-Plus-TCP/source/FreeRTOS_TCP_State_Handling.o
lTCPWindowRxCheck                                 ./ra/aws/FreeRTOS/FreeRTOS-Plus/Source/FreeRTOS-Plus-TCP/source/FreeRTOS_Tiny_TCP.o
                                                  ./ra/aws/FreeRTOS/FreeRTOS-Plus/Source/FreeRTOS-Plus-TCP/source/FreeRTOS_TCP_Reception.o
prvSetOptions                                     ./ra/aws/FreeRTOS/FreeRTOS-Plus/Source/FreeRTOS-Plus-TCP/source/FreeRTOS_TCP_Transmission.o
                                                  ./ra/aws/FreeRTOS/FreeRTOS-Plus/Source/FreeRTOS-Plus-TCP/source/FreeRTOS_TCP_State_Handling.o
vTCPWindowInit                                    ./ra/aws/FreeRTOS/FreeRTOS-Plus/Source/FreeRTOS-Plus-TCP/source/FreeRTOS_TCP_WIN.o
                                                  ./ra/aws/FreeRTOS/FreeRTOS-Plus/Source/FreeRTOS-Plus-TCP/source/FreeRTOS_TCP_State_Handling.o
prvSetSynAckOptions                               ./ra/aws/FreeRTOS/FreeRTOS-Plus/Source/FreeRTOS-Plus-TCP/source/FreeRTOS_TCP_Transmission.o
                                                  ./ra/aws/FreeRTOS/FreeRTOS-Plus/Source/FreeRTOS-Plus-TCP/source/FreeRTOS_TCP_State_Handling.o
ulTCPWindowTxAck                                  ./ra/aws/FreeRTOS/FreeRTOS-Plus/Source/FreeRTOS-Plus-TCP/source/FreeRTOS_Tiny_TCP.o
                                                  ./ra/aws/FreeRTOS/FreeRTOS-Plus/Source/FreeRTOS-Plus-TCP/source/FreeRTOS_TCP_State_Handling.o
xTCPWindowRxEmpty                                 ./ra/aws/FreeRTOS/FreeRTOS-Plus/Source/FreeRTOS-Plus-TCP/source/FreeRTOS_Tiny_TCP.o
                                                  ./ra/aws/FreeRTOS/FreeRTOS-Plus/Source/FreeRTOS-Plus-TCP/source/FreeRTOS_TCP_State_Handling.o
xTCPWindowTxDone                                  ./ra/aws/FreeRTOS/FreeRTOS-Plus/Source/FreeRTOS-Plus-TCP/source/FreeRTOS_Tiny_TCP.o
                                                  ./ra/aws/FreeRTOS/FreeRTOS-Plus/Source/FreeRTOS-Plus-TCP/source/FreeRTOS_TCP_State_Handling.o
                                                  ./ra/aws/FreeRTOS/FreeRTOS-Plus/Source/FreeRTOS-Plus-TCP/source/FreeRTOS_TCP_Transmission.o
prvSendData                                       ./ra/aws/FreeRTOS/FreeRTOS-Plus/Source/FreeRTOS-Plus-TCP/source/FreeRTOS_TCP_Transmission.o
                                                  ./ra/aws/FreeRTOS/FreeRTOS-Plus/Source/FreeRTOS-Plus-TCP/source/FreeRTOS_TCP_State_Handling.o
prvTCPPrepareSend                                 ./ra/aws/FreeRTOS/FreeRTOS-Plus/Source/FreeRTOS-Plus-TCP/source/FreeRTOS_TCP_Transmission.o
                                                  ./ra/aws/FreeRTOS/FreeRTOS-Plus/Source/FreeRTOS-Plus-TCP/source/FreeRTOS_TCP_State_Handling.o
prvHandleListen_IPV4                              ./ra/aws/FreeRTOS/FreeRTOS-Plus/Source/FreeRTOS-Plus-TCP/source/FreeRTOS_TCP_State_Handling_IPv4.o
                                                  ./ra/aws/FreeRTOS/FreeRTOS-Plus/Source/FreeRTOS-Plus-TCP/source/FreeRTOS_TCP_State_Handling.o
prvTCPSocketCopy                                  ./ra/aws/FreeRTOS/FreeRTOS-Plus/Source/FreeRTOS-Plus-TCP/source/FreeRTOS_TCP_State_Handling.o
                                                  ./ra/aws/FreeRTOS/FreeRTOS-Plus/Source/FreeRTOS-Plus-TCP/source/FreeRTOS_TCP_State_Handling_IPv4.o
prvSocketSetMSS                                   ./ra/aws/FreeRTOS/FreeRTOS-Plus/Source/FreeRTOS-Plus-TCP/source/FreeRTOS_TCP_Utils.o
                                                  ./ra/aws/FreeRTOS/FreeRTOS-Plus/Source/FreeRTOS-Plus-TCP/source/FreeRTOS_TCP_State_Handling_IPv4.o
                                                  ./ra/aws/FreeRTOS/FreeRTOS-Plus/Source/FreeRTOS-Plus-TCP/source/FreeRTOS_TCP_Transmission_IPv4.o
prvTCPCreateWindow                                ./ra/aws/FreeRTOS/FreeRTOS-Plus/Source/FreeRTOS-Plus-TCP/source/FreeRTOS_TCP_Transmission.o
                                                  ./ra/aws/FreeRTOS/FreeRTOS-Plus/Source/FreeRTOS-Plus-TCP/source/FreeRTOS_TCP_State_Handling_IPv4.o
                                                  ./ra/aws/FreeRTOS/FreeRTOS-Plus/Source/FreeRTOS-Plus-TCP/source/FreeRTOS_TCP_Transmission_IPv4.o
prvTCPReturnPacket_IPV4                           ./ra/aws/FreeRTOS/FreeRTOS-Plus/Source/FreeRTOS-Plus-TCP/source/FreeRTOS_TCP_Transmission_IPv4.o
                                                  ./ra/aws/FreeRTOS/FreeRTOS-Plus/Source/FreeRTOS-Plus-TCP/source/FreeRTOS_TCP_Transmission.o
prvTCPPrepareConnect_IPV4                         ./ra/aws/FreeRTOS/FreeRTOS-Plus/Source/FreeRTOS-Plus-TCP/source/FreeRTOS_TCP_Transmission_IPv4.o
                                                  ./ra/aws/FreeRTOS/FreeRTOS-Plus/Source/FreeRTOS-Plus-TCP/source/FreeRTOS_TCP_Transmission.o
prvTCPReturnPacket                                ./ra/aws/FreeRTOS/FreeRTOS-Plus/Source/FreeRTOS-Plus-TCP/source/FreeRTOS_TCP_Transmission.o
                                                  ./ra/aws/FreeRTOS/FreeRTOS-Plus/Source/FreeRTOS-Plus-TCP/source/FreeRTOS_TCP_Transmission_IPv4.o
ulTCPWindowTxGet                                  ./ra/aws/FreeRTOS/FreeRTOS-Plus/Source/FreeRTOS-Plus-TCP/source/FreeRTOS_Tiny_TCP.o
                                                  ./ra/aws/FreeRTOS/FreeRTOS-Plus/Source/FreeRTOS-Plus-TCP/source/FreeRTOS_TCP_Transmission.o
prvTCPBufferResize                                ./ra/aws/FreeRTOS/FreeRTOS-Plus/Source/FreeRTOS-Plus-TCP/source/FreeRTOS_TCP_Transmission.o
prvTCPReturn_CheckTCPWindow                       ./ra/aws/FreeRTOS/FreeRTOS-Plus/Source/FreeRTOS-Plus-TCP/source/FreeRTOS_TCP_Transmission.o
                                                  ./ra/aws/FreeRTOS/FreeRTOS-Plus/Source/FreeRTOS-Plus-TCP/source/FreeRTOS_TCP_Transmission_IPv4.o
prvTCPReturn_SetSequenceNumber                    ./ra/aws/FreeRTOS/FreeRTOS-Plus/Source/FreeRTOS-Plus-TCP/source/FreeRTOS_TCP_Transmission.o
                                                  ./ra/aws/FreeRTOS/FreeRTOS-Plus/Source/FreeRTOS-Plus-TCP/source/FreeRTOS_TCP_Transmission_IPv4.o
xTCPWindowCreate                                  ./ra/aws/FreeRTOS/FreeRTOS-Plus/Source/FreeRTOS-Plus-TCP/source/FreeRTOS_TCP_WIN.o
                                                  ./ra/aws/FreeRTOS/FreeRTOS-Plus/Source/FreeRTOS-Plus-TCP/source/FreeRTOS_TCP_Transmission.o
prvTCPReturn_SetEndPoint                          ./ra/aws/FreeRTOS/FreeRTOS-Plus/Source/FreeRTOS-Plus-TCP/source/FreeRTOS_TCP_Transmission.o
                                                  ./ra/aws/FreeRTOS/FreeRTOS-Plus/Source/FreeRTOS-Plus-TCP/source/FreeRTOS_TCP_Transmission_IPv4.o
lTCPWindowTxAdd                                   ./ra/aws/FreeRTOS/FreeRTOS-Plus/Source/FreeRTOS-Plus-TCP/source/FreeRTOS_Tiny_TCP.o
                                                  ./ra/aws/FreeRTOS/FreeRTOS-Plus/Source/FreeRTOS-Plus-TCP/source/FreeRTOS_TCP_Transmission.o
prvTCPSendSpecialPktHelper_IPV4                   ./ra/aws/FreeRTOS/FreeRTOS-Plus/Source/FreeRTOS-Plus-TCP/source/FreeRTOS_TCP_Transmission_IPv4.o
                                                  ./ra/aws/FreeRTOS/FreeRTOS-Plus/Source/FreeRTOS-Plus-TCP/source/FreeRTOS_TCP_Transmission.o
prvSocketSetMSS_IPV4                              ./ra/aws/FreeRTOS/FreeRTOS-Plus/Source/FreeRTOS-Plus-TCP/source/FreeRTOS_TCP_Utils_IPv4.o
                                                  ./ra/aws/FreeRTOS/FreeRTOS-Plus/Source/FreeRTOS-Plus-TCP/source/FreeRTOS_TCP_Utils.o
vProcessGeneratedUDPPacket_IPv4                   ./ra/aws/FreeRTOS/FreeRTOS-Plus/Source/FreeRTOS-Plus-TCP/source/FreeRTOS_UDP_IPv4.o
                                                  ./ra/aws/FreeRTOS/FreeRTOS-Plus/Source/FreeRTOS-Plus-TCP/source/FreeRTOS_UDP_IP.o
xProcessReceivedUDPPacket_IPv4                    ./ra/aws/FreeRTOS/FreeRTOS-Plus/Source/FreeRTOS-Plus-TCP/source/FreeRTOS_UDP_IPv4.o
                                                  ./ra/aws/FreeRTOS/FreeRTOS-Plus/Source/FreeRTOS-Plus-TCP/source/FreeRTOS_UDP_IP.o
random                                            D:\Renesas\RA\e2studio_v2023-07_fsp_v4.6.0\toolchains\llvm_arm\LLVM-ET-Arm-18.1.3-Windows-x86_64\bin\..\lib\clang-runtimes/arm-none-eabi/armv7em_hard_fpv4_sp_d16_exn_rtti\lib\libc.a(libc_stdlib_random.c.o)
                                                  D:\Renesas\RA\e2studio_v2023-07_fsp_v4.6.0\toolchains\llvm_arm\LLVM-ET-Arm-18.1.3-Windows-x86_64\bin\..\lib\clang-runtimes/arm-none-eabi/armv7em_hard_fpv4_sp_d16_exn_rtti\lib\libc.a(libc_stdlib_rand.c.o)
_rand_next                                        D:\Renesas\RA\e2studio_v2023-07_fsp_v4.6.0\toolchains\llvm_arm\LLVM-ET-Arm-18.1.3-Windows-x86_64\bin\..\lib\clang-runtimes/arm-none-eabi/armv7em_hard_fpv4_sp_d16_exn_rtti\lib\libc.a(libc_stdlib_random.c.o)
__tdata_source                                    fsp_gen.lld:428
                                                  D:\Renesas\RA\e2studio_v2023-07_fsp_v4.6.0\toolchains\llvm_arm\LLVM-ET-Arm-18.1.3-Windows-x86_64\bin\..\lib\clang-runtimes/arm-none-eabi/armv7em_hard_fpv4_sp_d16_exn_rtti\lib\libc.a(libc_picolib_inittls.c.o)
__tdata_size                                      fsp_gen.lld:429
                                                  D:\Renesas\RA\e2studio_v2023-07_fsp_v4.6.0\toolchains\llvm_arm\LLVM-ET-Arm-18.1.3-Windows-x86_64\bin\..\lib\clang-runtimes/arm-none-eabi/armv7em_hard_fpv4_sp_d16_exn_rtti\lib\libc.a(libc_picolib_inittls.c.o)
__tbss_offset                                     fsp_gen.lld:430
                                                  D:\Renesas\RA\e2studio_v2023-07_fsp_v4.6.0\toolchains\llvm_arm\LLVM-ET-Arm-18.1.3-Windows-x86_64\bin\..\lib\clang-runtimes/arm-none-eabi/armv7em_hard_fpv4_sp_d16_exn_rtti\lib\libc.a(libc_picolib_inittls.c.o)
__tbss_size                                       fsp_gen.lld:431
                                                  D:\Renesas\RA\e2studio_v2023-07_fsp_v4.6.0\toolchains\llvm_arm\LLVM-ET-Arm-18.1.3-Windows-x86_64\bin\..\lib\clang-runtimes/arm-none-eabi/armv7em_hard_fpv4_sp_d16_exn_rtti\lib\libc.a(libc_picolib_inittls.c.o)
__arm32_tls_tcb_offset                            fsp_gen.lld:432
                                                  D:\Renesas\RA\e2studio_v2023-07_fsp_v4.6.0\toolchains\llvm_arm\LLVM-ET-Arm-18.1.3-Windows-x86_64\bin\..\lib\clang-runtimes/arm-none-eabi/armv7em_hard_fpv4_sp_d16_exn_rtti\lib\libc.a(libc_picolib_machine_arm_tls.c.o)
__tls                                             D:\Renesas\RA\e2studio_v2023-07_fsp_v4.6.0\toolchains\llvm_arm\LLVM-ET-Arm-18.1.3-Windows-x86_64\bin\..\lib\clang-runtimes/arm-none-eabi/armv7em_hard_fpv4_sp_d16_exn_rtti\lib\libc.a(libc_picolib_machine_arm_read_tp.S.o)
                                                  D:\Renesas\RA\e2studio_v2023-07_fsp_v4.6.0\toolchains\llvm_arm\LLVM-ET-Arm-18.1.3-Windows-x86_64\bin\..\lib\clang-runtimes/arm-none-eabi/armv7em_hard_fpv4_sp_d16_exn_rtti\lib\libc.a(libc_picolib_machine_arm_tls.c.o)
vfprintf                                          D:\Renesas\RA\e2studio_v2023-07_fsp_v4.6.0\toolchains\llvm_arm\LLVM-ET-Arm-18.1.3-Windows-x86_64\bin\..\lib\clang-runtimes/arm-none-eabi/armv7em_hard_fpv4_sp_d16_exn_rtti\lib\libc.a(libc_tinystdio_vfprintf.c.o)
                                                  D:\Renesas\RA\e2studio_v2023-07_fsp_v4.6.0\toolchains\llvm_arm\LLVM-ET-Arm-18.1.3-Windows-x86_64\bin\..\lib\clang-runtimes/arm-none-eabi/armv7em_hard_fpv4_sp_d16_exn_rtti\lib\libc.a(libc_tinystdio_snprintf.c.o)
__file_str_put                                    D:\Renesas\RA\e2studio_v2023-07_fsp_v4.6.0\toolchains\llvm_arm\LLVM-ET-Arm-18.1.3-Windows-x86_64\bin\..\lib\clang-runtimes/arm-none-eabi/armv7em_hard_fpv4_sp_d16_exn_rtti\lib\libc.a(libc_tinystdio_filestrput.c.o)
                                                  D:\Renesas\RA\e2studio_v2023-07_fsp_v4.6.0\toolchains\llvm_arm\LLVM-ET-Arm-18.1.3-Windows-x86_64\bin\..\lib\clang-runtimes/arm-none-eabi/armv7em_hard_fpv4_sp_d16_exn_rtti\lib\libc.a(libc_tinystdio_snprintf.c.o)
__dtox_engine                                     D:\Renesas\RA\e2studio_v2023-07_fsp_v4.6.0\toolchains\llvm_arm\LLVM-ET-Arm-18.1.3-Windows-x86_64\bin\..\lib\clang-runtimes/arm-none-eabi/armv7em_hard_fpv4_sp_d16_exn_rtti\lib\libc.a(libc_tinystdio_dtox_engine.c.o)
                                                  D:\Renesas\RA\e2studio_v2023-07_fsp_v4.6.0\toolchains\llvm_arm\LLVM-ET-Arm-18.1.3-Windows-x86_64\bin\..\lib\clang-runtimes/arm-none-eabi/armv7em_hard_fpv4_sp_d16_exn_rtti\lib\libc.a(libc_tinystdio_vfprintf.c.o)
__dtoa_engine                                     D:\Renesas\RA\e2studio_v2023-07_fsp_v4.6.0\toolchains\llvm_arm\LLVM-ET-Arm-18.1.3-Windows-x86_64\bin\..\lib\clang-runtimes/arm-none-eabi/armv7em_hard_fpv4_sp_d16_exn_rtti\lib\libc.a(libc_tinystdio_dtoa_ryu.c.o)
                                                  D:\Renesas\RA\e2studio_v2023-07_fsp_v4.6.0\toolchains\llvm_arm\LLVM-ET-Arm-18.1.3-Windows-x86_64\bin\..\lib\clang-runtimes/arm-none-eabi/armv7em_hard_fpv4_sp_d16_exn_rtti\lib\libc.a(libc_tinystdio_vfprintf.c.o)
strnlen                                           D:\Renesas\RA\e2studio_v2023-07_fsp_v4.6.0\toolchains\llvm_arm\LLVM-ET-Arm-18.1.3-Windows-x86_64\bin\..\lib\clang-runtimes/arm-none-eabi/armv7em_hard_fpv4_sp_d16_exn_rtti\lib\libc.a(libc_string_strnlen.c.o)
                                                  D:\Renesas\RA\e2studio_v2023-07_fsp_v4.6.0\toolchains\llvm_arm\LLVM-ET-Arm-18.1.3-Windows-x86_64\bin\..\lib\clang-runtimes/arm-none-eabi/armv7em_hard_fpv4_sp_d16_exn_rtti\lib\libc.a(libc_tinystdio_vfprintf.c.o)
__d_vfprintf                                      D:\Renesas\RA\e2studio_v2023-07_fsp_v4.6.0\toolchains\llvm_arm\LLVM-ET-Arm-18.1.3-Windows-x86_64\bin\..\lib\clang-runtimes/arm-none-eabi/armv7em_hard_fpv4_sp_d16_exn_rtti\lib\libc.a(libc_tinystdio_vfprintf.c.o)
__log10Pow2                                       D:\Renesas\RA\e2studio_v2023-07_fsp_v4.6.0\toolchains\llvm_arm\LLVM-ET-Arm-18.1.3-Windows-x86_64\bin\..\lib\clang-runtimes/arm-none-eabi/armv7em_hard_fpv4_sp_d16_exn_rtti\lib\libc.a(libc_tinystdio_ryu_log10.c.o)
                                                  D:\Renesas\RA\e2studio_v2023-07_fsp_v4.6.0\toolchains\llvm_arm\LLVM-ET-Arm-18.1.3-Windows-x86_64\bin\..\lib\clang-runtimes/arm-none-eabi/armv7em_hard_fpv4_sp_d16_exn_rtti\lib\libc.a(libc_tinystdio_dtoa_ryu.c.o)
__pow5bits                                        D:\Renesas\RA\e2studio_v2023-07_fsp_v4.6.0\toolchains\llvm_arm\LLVM-ET-Arm-18.1.3-Windows-x86_64\bin\..\lib\clang-runtimes/arm-none-eabi/armv7em_hard_fpv4_sp_d16_exn_rtti\lib\libc.a(libc_tinystdio_ryu_pow5bits.c.o)
                                                  D:\Renesas\RA\e2studio_v2023-07_fsp_v4.6.0\toolchains\llvm_arm\LLVM-ET-Arm-18.1.3-Windows-x86_64\bin\..\lib\clang-runtimes/arm-none-eabi/armv7em_hard_fpv4_sp_d16_exn_rtti\lib\libc.a(libc_tinystdio_dtoa_ryu.c.o)
                                                  D:\Renesas\RA\e2studio_v2023-07_fsp_v4.6.0\toolchains\llvm_arm\LLVM-ET-Arm-18.1.3-Windows-x86_64\bin\..\lib\clang-runtimes/arm-none-eabi/armv7em_hard_fpv4_sp_d16_exn_rtti\lib\libc.a(libc_tinystdio_ryu_table.c.o)
__double_computeInvPow5                           D:\Renesas\RA\e2studio_v2023-07_fsp_v4.6.0\toolchains\llvm_arm\LLVM-ET-Arm-18.1.3-Windows-x86_64\bin\..\lib\clang-runtimes/arm-none-eabi/armv7em_hard_fpv4_sp_d16_exn_rtti\lib\libc.a(libc_tinystdio_ryu_table.c.o)
                                                  D:\Renesas\RA\e2studio_v2023-07_fsp_v4.6.0\toolchains\llvm_arm\LLVM-ET-Arm-18.1.3-Windows-x86_64\bin\..\lib\clang-runtimes/arm-none-eabi/armv7em_hard_fpv4_sp_d16_exn_rtti\lib\libc.a(libc_tinystdio_dtoa_ryu.c.o)
__pow5Factor                                      D:\Renesas\RA\e2studio_v2023-07_fsp_v4.6.0\toolchains\llvm_arm\LLVM-ET-Arm-18.1.3-Windows-x86_64\bin\..\lib\clang-runtimes/arm-none-eabi/armv7em_hard_fpv4_sp_d16_exn_rtti\lib\libc.a(libc_tinystdio_ryu_table.c.o)
                                                  D:\Renesas\RA\e2studio_v2023-07_fsp_v4.6.0\toolchains\llvm_arm\LLVM-ET-Arm-18.1.3-Windows-x86_64\bin\..\lib\clang-runtimes/arm-none-eabi/armv7em_hard_fpv4_sp_d16_exn_rtti\lib\libc.a(libc_tinystdio_dtoa_ryu.c.o)
__log10Pow5                                       D:\Renesas\RA\e2studio_v2023-07_fsp_v4.6.0\toolchains\llvm_arm\LLVM-ET-Arm-18.1.3-Windows-x86_64\bin\..\lib\clang-runtimes/arm-none-eabi/armv7em_hard_fpv4_sp_d16_exn_rtti\lib\libc.a(libc_tinystdio_ryu_log10.c.o)
                                                  D:\Renesas\RA\e2studio_v2023-07_fsp_v4.6.0\toolchains\llvm_arm\LLVM-ET-Arm-18.1.3-Windows-x86_64\bin\..\lib\clang-runtimes/arm-none-eabi/armv7em_hard_fpv4_sp_d16_exn_rtti\lib\libc.a(libc_tinystdio_dtoa_ryu.c.o)
__double_computePow5                              D:\Renesas\RA\e2studio_v2023-07_fsp_v4.6.0\toolchains\llvm_arm\LLVM-ET-Arm-18.1.3-Windows-x86_64\bin\..\lib\clang-runtimes/arm-none-eabi/armv7em_hard_fpv4_sp_d16_exn_rtti\lib\libc.a(libc_tinystdio_ryu_table.c.o)
                                                  D:\Renesas\RA\e2studio_v2023-07_fsp_v4.6.0\toolchains\llvm_arm\LLVM-ET-Arm-18.1.3-Windows-x86_64\bin\..\lib\clang-runtimes/arm-none-eabi/armv7em_hard_fpv4_sp_d16_exn_rtti\lib\libc.a(libc_tinystdio_dtoa_ryu.c.o)
__umul128                                         D:\Renesas\RA\e2studio_v2023-07_fsp_v4.6.0\toolchains\llvm_arm\LLVM-ET-Arm-18.1.3-Windows-x86_64\bin\..\lib\clang-runtimes/arm-none-eabi/armv7em_hard_fpv4_sp_d16_exn_rtti\lib\libc.a(libc_tinystdio_ryu_umul128.c.o)
                                                  D:\Renesas\RA\e2studio_v2023-07_fsp_v4.6.0\toolchains\llvm_arm\LLVM-ET-Arm-18.1.3-Windows-x86_64\bin\..\lib\clang-runtimes/arm-none-eabi/armv7em_hard_fpv4_sp_d16_exn_rtti\lib\libc.a(libc_tinystdio_dtoa_ryu.c.o)
                                                  D:\Renesas\RA\e2studio_v2023-07_fsp_v4.6.0\toolchains\llvm_arm\LLVM-ET-Arm-18.1.3-Windows-x86_64\bin\..\lib\clang-runtimes/arm-none-eabi/armv7em_hard_fpv4_sp_d16_exn_rtti\lib\libc.a(libc_tinystdio_ryu_table.c.o)
__shiftright128                                   D:\Renesas\RA\e2studio_v2023-07_fsp_v4.6.0\toolchains\llvm_arm\LLVM-ET-Arm-18.1.3-Windows-x86_64\bin\..\lib\clang-runtimes/arm-none-eabi/armv7em_hard_fpv4_sp_d16_exn_rtti\lib\libc.a(libc_tinystdio_ryu_umul128.c.o)
                                                  D:\Renesas\RA\e2studio_v2023-07_fsp_v4.6.0\toolchains\llvm_arm\LLVM-ET-Arm-18.1.3-Windows-x86_64\bin\..\lib\clang-runtimes/arm-none-eabi/armv7em_hard_fpv4_sp_d16_exn_rtti\lib\libc.a(libc_tinystdio_dtoa_ryu.c.o)
                                                  D:\Renesas\RA\e2studio_v2023-07_fsp_v4.6.0\toolchains\llvm_arm\LLVM-ET-Arm-18.1.3-Windows-x86_64\bin\..\lib\clang-runtimes/arm-none-eabi/armv7em_hard_fpv4_sp_d16_exn_rtti\lib\libc.a(libc_tinystdio_ryu_table.c.o)
memset                                            D:\Renesas\RA\e2studio_v2023-07_fsp_v4.6.0\toolchains\llvm_arm\LLVM-ET-Arm-18.1.3-Windows-x86_64\bin\..\lib\clang-runtimes/arm-none-eabi/armv7em_hard_fpv4_sp_d16_exn_rtti\lib\libc.a(memset.c.o)
                                                  D:\Renesas\RA\e2studio_v2023-07_fsp_v4.6.0\toolchains\llvm_arm\LLVM-ET-Arm-18.1.3-Windows-x86_64\bin\..\lib\clang-runtimes/arm-none-eabi/armv7em_hard_fpv4_sp_d16_exn_rtti\lib\libc.a(aeabi_memset.c.o)
                                                  D:\Renesas\RA\e2studio_v2023-07_fsp_v4.6.0\toolchains\llvm_arm\LLVM-ET-Arm-18.1.3-Windows-x86_64\bin\..\lib\clang-runtimes/arm-none-eabi/armv7em_hard_fpv4_sp_d16_exn_rtti\lib\libc.a(bzero.c.o)
__aeabi_memset4                                   D:\Renesas\RA\e2studio_v2023-07_fsp_v4.6.0\toolchains\llvm_arm\LLVM-ET-Arm-18.1.3-Windows-x86_64\bin\..\lib\clang-runtimes/arm-none-eabi/armv7em_hard_fpv4_sp_d16_exn_rtti\lib\libc.a(aeabi_memset.c.o)
__aeabi_memset8                                   D:\Renesas\RA\e2studio_v2023-07_fsp_v4.6.0\toolchains\llvm_arm\LLVM-ET-Arm-18.1.3-Windows-x86_64\bin\..\lib\clang-runtimes/arm-none-eabi/armv7em_hard_fpv4_sp_d16_exn_rtti\lib\libc.a(aeabi_memset.c.o)
bzero                                             D:\Renesas\RA\e2studio_v2023-07_fsp_v4.6.0\toolchains\llvm_arm\LLVM-ET-Arm-18.1.3-Windows-x86_64\bin\..\lib\clang-runtimes/arm-none-eabi/armv7em_hard_fpv4_sp_d16_exn_rtti\lib\libc.a(bzero.c.o)
__aeabi_memclr8                                   D:\Renesas\RA\e2studio_v2023-07_fsp_v4.6.0\toolchains\llvm_arm\LLVM-ET-Arm-18.1.3-Windows-x86_64\bin\..\lib\clang-runtimes/arm-none-eabi/armv7em_hard_fpv4_sp_d16_exn_rtti\lib\libc.a(bzero.c.o)
memcpy                                            D:\Renesas\RA\e2studio_v2023-07_fsp_v4.6.0\toolchains\llvm_arm\LLVM-ET-Arm-18.1.3-Windows-x86_64\bin\..\lib\clang-runtimes/arm-none-eabi/armv7em_hard_fpv4_sp_d16_exn_rtti\lib\libc.a(memcpy.c.o)
__aeabi_memcpy8                                   D:\Renesas\RA\e2studio_v2023-07_fsp_v4.6.0\toolchains\llvm_arm\LLVM-ET-Arm-18.1.3-Windows-x86_64\bin\..\lib\clang-runtimes/arm-none-eabi/armv7em_hard_fpv4_sp_d16_exn_rtti\lib\libc.a(memcpy.c.o)
memmove                                           D:\Renesas\RA\e2studio_v2023-07_fsp_v4.6.0\toolchains\llvm_arm\LLVM-ET-Arm-18.1.3-Windows-x86_64\bin\..\lib\clang-runtimes/arm-none-eabi/armv7em_hard_fpv4_sp_d16_exn_rtti\lib\libc.a(memmove.c.o)
__aeabi_memmove4                                  D:\Renesas\RA\e2studio_v2023-07_fsp_v4.6.0\toolchains\llvm_arm\LLVM-ET-Arm-18.1.3-Windows-x86_64\bin\..\lib\clang-runtimes/arm-none-eabi/armv7em_hard_fpv4_sp_d16_exn_rtti\lib\libc.a(memmove.c.o)
__aeabi_memmove8                                  D:\Renesas\RA\e2studio_v2023-07_fsp_v4.6.0\toolchains\llvm_arm\LLVM-ET-Arm-18.1.3-Windows-x86_64\bin\..\lib\clang-runtimes/arm-none-eabi/armv7em_hard_fpv4_sp_d16_exn_rtti\lib\libc.a(memmove.c.o)
